
lab1.axf:     file format elf32-littlearm


Disassembly of section .text:

00000000 <__cs3_interrupt_vector>:
       0:	18 f0 9f e5 18 f0 9f e5 18 f0 9f e5 18 f0 9f e5     ................
      10:	18 f0 9f e5 18 f0 9f e5 18 f0 9f e5 18 f0 9f e5     ................
      20:	40 00 00 00 88 3a 00 00 8c 3a 00 00 90 3a 00 00     @....:...:...:..
      30:	94 3a 00 00 84 3a 00 00 98 3a 00 00 9c 3a 00 00     .:...:...:...:..

00000040 <__cs3_reset>:
      40:	ea000024 	b	d8 <__cs3_start_asm_sim>

00000044 <__cs3_start_c>:
      44:	e59f8084 	ldr	r8, [pc, #132]	; d0 <__cs3_start_c+0x8c>
      48:	e3580000 	cmp	r8, #0
      4c:	e92d4080 	push	{r7, lr}
      50:	0a00001d 	beq	cc <__cs3_start_c+0x88>
      54:	e3a04000 	mov	r4, #0
      58:	e3a05000 	mov	r5, #0
      5c:	e59f7070 	ldr	r7, [pc, #112]	; d4 <__cs3_start_c+0x90>
      60:	e2488001 	sub	r8, r8, #1
      64:	e5972008 	ldr	r2, [r7, #8]
      68:	e597e004 	ldr	lr, [r7, #4]
      6c:	e597600c 	ldr	r6, [r7, #12]
      70:	e15e0002 	cmp	lr, r2
      74:	00822006 	addeq	r2, r2, r6
      78:	0a000007 	beq	9c <__cs3_start_c+0x58>
      7c:	e3560000 	cmp	r6, #0
      80:	0a000005 	beq	9c <__cs3_start_c+0x58>
      84:	e1a0300e 	mov	r3, lr
      88:	e8b30003 	ldm	r3!, {r0, r1}
      8c:	e043c00e 	sub	r12, r3, lr
      90:	e15c0006 	cmp	r12, r6
      94:	e8a20003 	stmia	r2!, {r0, r1}
      98:	1afffffa 	bne	88 <__cs3_start_c+0x44>
      9c:	e5970010 	ldr	r0, [r7, #16]
      a0:	e3500000 	cmp	r0, #0
      a4:	11a03002 	movne	r3, r2
      a8:	0a000003 	beq	bc <__cs3_start_c+0x78>
      ac:	e8a30030 	stmia	r3!, {r4, r5}
      b0:	e0431002 	sub	r1, r3, r2
      b4:	e1500001 	cmp	r0, r1
      b8:	1afffffb 	bne	ac <__cs3_start_c+0x68>
      bc:	e2488001 	sub	r8, r8, #1
      c0:	e3780001 	cmn	r8, #1
      c4:	e2877014 	add	r7, r7, #20
      c8:	1affffe5 	bne	64 <__cs3_start_c+0x20>
      cc:	eb000c8a 	bl	32fc <__cs3_premain>
      d0:	00000001 	.word	0x00000001
      d4:	00003ba0 	.word	0x00003ba0

000000d8 <__cs3_start_asm_sim>:
      d8:	e28f103c 	add	r1, pc, #60	; 0x3c
      dc:	e3a00016 	mov	r0, #22
      e0:	ef123456 	svc	0x00123456
      e4:	e3500000 	cmp	r0, #0
      e8:	ba000008 	blt	110 <__cs3_region_zero_size_ram>
      ec:	e59f2028 	ldr	r2, [pc, #40]	; 11c <__cs3_heap_start_ptr>
      f0:	e59fd01c 	ldr	sp, [pc, #28]	; 114 <__cs3_region_zero_size_ram+0x4>
      f4:	e5920008 	ldr	r0, [r2, #8]
      f8:	e3500000 	cmp	r0, #0
      fc:	11a0d000 	movne	sp, r0
     100:	e59f1010 	ldr	r1, [pc, #16]	; 118 <__cs3_region_zero_size_ram+0x8>
     104:	e5920004 	ldr	r0, [r2, #4]
     108:	e3500000 	cmp	r0, #0
     10c:	15810000 	strne	r0, [r1]
     110:	eaffffcb 	b	44 <__cs3_start_c>
     114:	3ffffff8 	.word	0x3ffffff8
     118:	00004400 	.word	0x00004400

0000011c <__cs3_heap_start_ptr>:
     11c:	00004518 	.word	0x00004518

00000120 <_start>:
     120:	e51fd000 	ldr	sp, [pc, #-0]	; 128 <_start+0x8>
     124:	eaffffc6 	b	44 <__cs3_start_c>
     128:	3ffffff8 	.word	0x3ffffff8

0000012c <deregister_tm_clones>:
     12c:	e59f301c 	ldr	r3, [pc, #28]	; 150 <deregister_tm_clones+0x24>
     130:	e59f001c 	ldr	r0, [pc, #28]	; 154 <deregister_tm_clones+0x28>
     134:	e0433000 	sub	r3, r3, r0
     138:	e3530006 	cmp	r3, #6
     13c:	912fff1e 	bxls	lr
     140:	e59f3010 	ldr	r3, [pc, #16]	; 158 <deregister_tm_clones+0x2c>
     144:	e3530000 	cmp	r3, #0
     148:	012fff1e 	bxeq	lr
     14c:	e12fff13 	bx	r3
     150:	0000440b 	.word	0x0000440b
     154:	00004408 	.word	0x00004408
     158:	00000000 	.word	0x00000000

0000015c <register_tm_clones>:
     15c:	e59f1024 	ldr	r1, [pc, #36]	; 188 <register_tm_clones+0x2c>
     160:	e59f0024 	ldr	r0, [pc, #36]	; 18c <register_tm_clones+0x30>
     164:	e0411000 	sub	r1, r1, r0
     168:	e1a01141 	asr	r1, r1, #2
     16c:	e0811fa1 	add	r1, r1, r1, lsr #31
     170:	e1b010c1 	asrs	r1, r1, #1
     174:	012fff1e 	bxeq	lr
     178:	e59f3010 	ldr	r3, [pc, #16]	; 190 <register_tm_clones+0x34>
     17c:	e3530000 	cmp	r3, #0
     180:	012fff1e 	bxeq	lr
     184:	e12fff13 	bx	r3
     188:	00004408 	.word	0x00004408
     18c:	00004408 	.word	0x00004408
     190:	00000000 	.word	0x00000000

00000194 <__do_global_dtors_aux>:
     194:	e92d4010 	push	{r4, lr}
     198:	e59f402c 	ldr	r4, [pc, #44]	; 1cc <__do_global_dtors_aux+0x38>
     19c:	e5d43000 	ldrb	r3, [r4]
     1a0:	e3530000 	cmp	r3, #0
     1a4:	1a000006 	bne	1c4 <__do_global_dtors_aux+0x30>
     1a8:	ebffffdf 	bl	12c <deregister_tm_clones>
     1ac:	e59f301c 	ldr	r3, [pc, #28]	; 1d0 <__do_global_dtors_aux+0x3c>
     1b0:	e3530000 	cmp	r3, #0
     1b4:	159f0018 	ldrne	r0, [pc, #24]	; 1d4 <__do_global_dtors_aux+0x40>
     1b8:	1320f000 	nopne	{0}
     1bc:	e3a03001 	mov	r3, #1
     1c0:	e5c43000 	strb	r3, [r4]
     1c4:	e8bd4010 	pop	{r4, lr}
     1c8:	e12fff1e 	bx	lr
     1cc:	00004408 	.word	0x00004408
     1d0:	00000000 	.word	0x00000000
     1d4:	00003b30 	.word	0x00003b30

000001d8 <frame_dummy>:
     1d8:	e59f3040 	ldr	r3, [pc, #64]	; 220 <frame_dummy+0x48>
     1dc:	e3530000 	cmp	r3, #0
     1e0:	e92d4010 	push	{r4, lr}
     1e4:	159f1038 	ldrne	r1, [pc, #56]	; 224 <frame_dummy+0x4c>
     1e8:	159f0038 	ldrne	r0, [pc, #56]	; 228 <frame_dummy+0x50>
     1ec:	1320f000 	nopne	{0}
     1f0:	e59f0034 	ldr	r0, [pc, #52]	; 22c <frame_dummy+0x54>
     1f4:	e5903000 	ldr	r3, [r0]
     1f8:	e3530000 	cmp	r3, #0
     1fc:	1a000001 	bne	208 <frame_dummy+0x30>
     200:	e8bd4010 	pop	{r4, lr}
     204:	eaffffd4 	b	15c <register_tm_clones>
     208:	e59f3020 	ldr	r3, [pc, #32]	; 230 <frame_dummy+0x58>
     20c:	e3530000 	cmp	r3, #0
     210:	0afffffa 	beq	200 <frame_dummy+0x28>
     214:	e1a0e00f 	mov	lr, pc
     218:	e12fff13 	bx	r3
     21c:	eafffff7 	b	200 <frame_dummy+0x28>
     220:	00000000 	.word	0x00000000
     224:	0000440c 	.word	0x0000440c
     228:	00003b30 	.word	0x00003b30
     22c:	00003bb8 	.word	0x00003bb8
     230:	00000000 	.word	0x00000000

00000234 <main>:
#include <stdio.h>

int main(void)
{
     234:	e92d4010 	push	{r4, lr}
    printf("\nHello world!\n");
     238:	e3030b34 	movw	r0, #15156	; 0x3b34
     23c:	e3400000 	movt	r0, #0
     240:	eb00005b 	bl	3b4 <puts>

    return(0);
     244:	e3a00000 	mov	r0, #0
     248:	e8bd8010 	pop	{r4, pc}

0000024c <atexit>:
     24c:	e3a03000 	mov	r3, #0
     250:	e92d4010 	push	{r4, lr}
     254:	e1a01000 	mov	r1, r0
     258:	e1a02003 	mov	r2, r3
     25c:	e1a00003 	mov	r0, r3
     260:	eb000071 	bl	42c <__register_exitproc>
     264:	e8bd4010 	pop	{r4, lr}
     268:	e12fff1e 	bx	lr

0000026c <exit>:
     26c:	e92d4010 	push	{r4, lr}
     270:	e3a01000 	mov	r1, #0
     274:	e1a04000 	mov	r4, r0
     278:	eb0000aa 	bl	528 <__call_exitprocs>
     27c:	e59f3018 	ldr	r3, [pc, #24]	; 29c <exit+0x30>
     280:	e5930000 	ldr	r0, [r3]
     284:	e590303c 	ldr	r3, [r0, #60]	; 0x3c
     288:	e3530000 	cmp	r3, #0
     28c:	11a0e00f 	movne	lr, pc
     290:	112fff13 	bxne	r3
     294:	e1a00004 	mov	r0, r4
     298:	eb000c50 	bl	33e0 <_exit>
     29c:	00003b44 	.word	0x00003b44

000002a0 <_puts_r>:
     2a0:	e92d4030 	push	{r4, r5, lr}
     2a4:	e1a05000 	mov	r5, r0
     2a8:	e24dd024 	sub	sp, sp, #36	; 0x24
     2ac:	e1a00001 	mov	r0, r1
     2b0:	e1a04001 	mov	r4, r1
     2b4:	eb000044 	bl	3cc <strlen>
     2b8:	e3a0c001 	mov	r12, #1
     2bc:	e3a01002 	mov	r1, #2
     2c0:	e5953038 	ldr	r3, [r5, #56]	; 0x38
     2c4:	e59f20e4 	ldr	r2, [pc, #228]	; 3b0 <_puts_r+0x110>
     2c8:	e3530000 	cmp	r3, #0
     2cc:	e080e00c 	add	lr, r0, r12
     2d0:	e28d3010 	add	r3, sp, #16
     2d4:	e58d4010 	str	r4, [sp, #16]
     2d8:	e58d0014 	str	r0, [sp, #20]
     2dc:	e58de00c 	str	lr, [sp, #12]
     2e0:	e5954008 	ldr	r4, [r5, #8]
     2e4:	e58dc01c 	str	r12, [sp, #28]
     2e8:	e58d1008 	str	r1, [sp, #8]
     2ec:	e58d2018 	str	r2, [sp, #24]
     2f0:	e58d3004 	str	r3, [sp, #4]
     2f4:	0a00002a 	beq	3a4 <_puts_r+0x104>
     2f8:	e5943064 	ldr	r3, [r4, #100]	; 0x64
     2fc:	e1d420fc 	ldrsh	r2, [r4, #12]
     300:	e3130001 	tst	r3, #1
     304:	e1a03802 	lsl	r3, r2, #16
     308:	1a00001d 	bne	384 <_puts_r+0xe4>
     30c:	e3130402 	tst	r3, #33554432	; 0x2000000
     310:	e1a03823 	lsr	r3, r3, #16
     314:	0a000016 	beq	374 <_puts_r+0xd4>
     318:	e3130a02 	tst	r3, #8192	; 0x2000
     31c:	05943064 	ldreq	r3, [r4, #100]	; 0x64
     320:	03822a02 	orreq	r2, r2, #8192	; 0x2000
     324:	03c33a02 	biceq	r3, r3, #8192	; 0x2000
     328:	01c420bc 	strheq	r2, [r4, #12]
     32c:	05843064 	streq	r3, [r4, #100]	; 0x64
     330:	e1a00005 	mov	r0, r5
     334:	e28d2004 	add	r2, sp, #4
     338:	e1a01004 	mov	r1, r4
     33c:	eb000201 	bl	b48 <__sfvwrite_r>
     340:	e5943064 	ldr	r3, [r4, #100]	; 0x64
     344:	e3500000 	cmp	r0, #0
     348:	03a0500a 	moveq	r5, #10
     34c:	13e05000 	mvnne	r5, #0
     350:	e3130001 	tst	r3, #1
     354:	1a000002 	bne	364 <_puts_r+0xc4>
     358:	e1d430bc 	ldrh	r3, [r4, #12]
     35c:	e3130c02 	tst	r3, #512	; 0x200
     360:	0a000009 	beq	38c <_puts_r+0xec>
     364:	e1a00005 	mov	r0, r5
     368:	e28dd024 	add	sp, sp, #36	; 0x24
     36c:	e8bd4030 	pop	{r4, r5, lr}
     370:	e12fff1e 	bx	lr
     374:	e2840058 	add	r0, r4, #88	; 0x58
     378:	eb000bda 	bl	32e8 <__generic_gxx_recursive_mutex_lock>
     37c:	e1d420fc 	ldrsh	r2, [r4, #12]
     380:	e1a03802 	lsl	r3, r2, #16
     384:	e1a03823 	lsr	r3, r3, #16
     388:	eaffffe2 	b	318 <_puts_r+0x78>
     38c:	e2840058 	add	r0, r4, #88	; 0x58
     390:	eb000bd2 	bl	32e0 <__generic_gxx_recursive_mutex_unlock>
     394:	e1a00005 	mov	r0, r5
     398:	e28dd024 	add	sp, sp, #36	; 0x24
     39c:	e8bd4030 	pop	{r4, r5, lr}
     3a0:	e12fff1e 	bx	lr
     3a4:	e1a00005 	mov	r0, r5
     3a8:	eb00012f 	bl	86c <__sinit>
     3ac:	eaffffd1 	b	2f8 <_puts_r+0x58>
     3b0:	00003b48 	.word	0x00003b48

000003b4 <puts>:
     3b4:	e92d4010 	push	{r4, lr}
     3b8:	e1a04000 	mov	r4, r0
     3bc:	eb00035c 	bl	1134 <__getreent>
     3c0:	e1a01004 	mov	r1, r4
     3c4:	e8bd4010 	pop	{r4, lr}
     3c8:	eaffffb4 	b	2a0 <_puts_r>

000003cc <strlen>:
     3cc:	e3c01003 	bic	r1, r0, #3
     3d0:	e2100003 	ands	r0, r0, #3
     3d4:	e2600000 	rsb	r0, r0, #0
     3d8:	e4913004 	ldr	r3, [r1], #4
     3dc:	e280c004 	add	r12, r0, #4
     3e0:	e1a0c18c 	lsl	r12, r12, #3
     3e4:	e3e02000 	mvn	r2, #0
     3e8:	11833c32 	orrne	r3, r3, r2, lsr r12
     3ec:	e3a0c001 	mov	r12, #1
     3f0:	e18cc40c 	orr	r12, r12, r12, lsl #8
     3f4:	e18cc80c 	orr	r12, r12, r12, lsl #16
     3f8:	e043200c 	sub	r2, r3, r12
     3fc:	e1c22003 	bic	r2, r2, r3
     400:	e012238c 	ands	r2, r2, r12, lsl #7
     404:	04913004 	ldreq	r3, [r1], #4
     408:	02800004 	addeq	r0, r0, #4
     40c:	0afffff9 	beq	3f8 <strlen+0x2c>
     410:	e31300ff 	tst	r3, #255	; 0xff
     414:	12800001 	addne	r0, r0, #1
     418:	13130cff 	tstne	r3, #65280	; 0xff00
     41c:	12800001 	addne	r0, r0, #1
     420:	131308ff 	tstne	r3, #16711680	; 0xff0000
     424:	12800001 	addne	r0, r0, #1
     428:	e12fff1e 	bx	lr

0000042c <__register_exitproc>:
     42c:	e92d41f0 	push	{r4, r5, r6, r7, r8, lr}
     430:	e1a05000 	mov	r5, r0
     434:	e59f00e0 	ldr	r0, [pc, #224]	; 51c <__register_exitproc+0xf0>
     438:	e1a08002 	mov	r8, r2
     43c:	e1a07003 	mov	r7, r3
     440:	e1a06001 	mov	r6, r1
     444:	eb000ba7 	bl	32e8 <__generic_gxx_recursive_mutex_lock>
     448:	e59f30d0 	ldr	r3, [pc, #208]	; 520 <__register_exitproc+0xf4>
     44c:	e5934000 	ldr	r4, [r3]
     450:	e5943148 	ldr	r3, [r4, #328]	; 0x148
     454:	e3530000 	cmp	r3, #0
     458:	02843f53 	addeq	r3, r4, #332	; 0x14c
     45c:	e5932004 	ldr	r2, [r3, #4]
     460:	05843148 	streq	r3, [r4, #328]	; 0x148
     464:	e352001f 	cmp	r2, #31
     468:	d2820001 	addle	r0, r2, #1
     46c:	da00000f 	ble	4b0 <__register_exitproc+0x84>
     470:	e59f30ac 	ldr	r3, [pc, #172]	; 524 <__register_exitproc+0xf8>
     474:	e3530000 	cmp	r3, #0
     478:	0a000023 	beq	50c <__register_exitproc+0xe0>
     47c:	e3a00e19 	mov	r0, #400	; 0x190
     480:	e320f000 	nop	{0}
     484:	e2503000 	subs	r3, r0, #0
     488:	0a00001f 	beq	50c <__register_exitproc+0xe0>
     48c:	e3a01000 	mov	r1, #0
     490:	e3a00001 	mov	r0, #1
     494:	e1a02001 	mov	r2, r1
     498:	e594c148 	ldr	r12, [r4, #328]	; 0x148
     49c:	e5831004 	str	r1, [r3, #4]
     4a0:	e583c000 	str	r12, [r3]
     4a4:	e5843148 	str	r3, [r4, #328]	; 0x148
     4a8:	e5831188 	str	r1, [r3, #392]	; 0x188
     4ac:	e583118c 	str	r1, [r3, #396]	; 0x18c
     4b0:	e3550000 	cmp	r5, #0
     4b4:	1a000007 	bne	4d8 <__register_exitproc+0xac>
     4b8:	e2822002 	add	r2, r2, #2
     4bc:	e5830004 	str	r0, [r3, #4]
     4c0:	e59f0054 	ldr	r0, [pc, #84]	; 51c <__register_exitproc+0xf0>
     4c4:	e7836102 	str	r6, [r3, r2, lsl #2]
     4c8:	eb000b84 	bl	32e0 <__generic_gxx_recursive_mutex_unlock>
     4cc:	e3a00000 	mov	r0, #0
     4d0:	e8bd41f0 	pop	{r4, r5, r6, r7, r8, lr}
     4d4:	e12fff1e 	bx	lr
     4d8:	e3a01001 	mov	r1, #1
     4dc:	e083e102 	add	lr, r3, r2, lsl #2
     4e0:	e58e8088 	str	r8, [lr, #136]	; 0x88
     4e4:	e593c188 	ldr	r12, [r3, #392]	; 0x188
     4e8:	e1a01211 	lsl	r1, r1, r2
     4ec:	e18cc001 	orr	r12, r12, r1
     4f0:	e583c188 	str	r12, [r3, #392]	; 0x188
     4f4:	e58e7108 	str	r7, [lr, #264]	; 0x108
     4f8:	e3550002 	cmp	r5, #2
     4fc:	0593c18c 	ldreq	r12, [r3, #396]	; 0x18c
     500:	018c1001 	orreq	r1, r12, r1
     504:	0583118c 	streq	r1, [r3, #396]	; 0x18c
     508:	eaffffea 	b	4b8 <__register_exitproc+0x8c>
     50c:	e59f0008 	ldr	r0, [pc, #8]	; 51c <__register_exitproc+0xf0>
     510:	eb000b72 	bl	32e0 <__generic_gxx_recursive_mutex_unlock>
     514:	e3e00000 	mvn	r0, #0
     518:	eaffffec 	b	4d0 <__register_exitproc+0xa4>
     51c:	00004424 	.word	0x00004424
     520:	00003b44 	.word	0x00003b44
     524:	00000000 	.word	0x00000000

00000528 <__call_exitprocs>:
     528:	e92d4ff0 	push	{r4, r5, r6, r7, r8, r9, r10, r11, lr}
     52c:	e3a09001 	mov	r9, #1
     530:	e3a0a000 	mov	r10, #0
     534:	e24dd014 	sub	sp, sp, #20
     538:	e58d0004 	str	r0, [sp, #4]
     53c:	e59f015c 	ldr	r0, [pc, #348]	; 6a0 <__call_exitprocs+0x178>
     540:	e1a06001 	mov	r6, r1
     544:	eb000b67 	bl	32e8 <__generic_gxx_recursive_mutex_lock>
     548:	e59f3154 	ldr	r3, [pc, #340]	; 6a4 <__call_exitprocs+0x17c>
     54c:	e5933000 	ldr	r3, [r3]
     550:	e58d3008 	str	r3, [sp, #8]
     554:	e2833f52 	add	r3, r3, #328	; 0x148
     558:	e58d300c 	str	r3, [sp, #12]
     55c:	e59d3008 	ldr	r3, [sp, #8]
     560:	e5937148 	ldr	r7, [r3, #328]	; 0x148
     564:	e3570000 	cmp	r7, #0
     568:	0a00003d 	beq	664 <__call_exitprocs+0x13c>
     56c:	e59d800c 	ldr	r8, [sp, #12]
     570:	e1a0b008 	mov	r11, r8
     574:	e5974004 	ldr	r4, [r7, #4]
     578:	e2545001 	subs	r5, r4, #1
     57c:	52844001 	addpl	r4, r4, #1
     580:	50874104 	addpl	r4, r7, r4, lsl #2
     584:	5a000007 	bpl	5a8 <__call_exitprocs+0x80>
     588:	ea000026 	b	628 <__call_exitprocs+0x100>
     58c:	e5943100 	ldr	r3, [r4, #256]	; 0x100
     590:	e1560003 	cmp	r6, r3
     594:	0a000005 	beq	5b0 <__call_exitprocs+0x88>
     598:	e2455001 	sub	r5, r5, #1
     59c:	e3750001 	cmn	r5, #1
     5a0:	e2444004 	sub	r4, r4, #4
     5a4:	0a00001f 	beq	628 <__call_exitprocs+0x100>
     5a8:	e3560000 	cmp	r6, #0
     5ac:	1afffff6 	bne	58c <__call_exitprocs+0x64>
     5b0:	e5973004 	ldr	r3, [r7, #4]
     5b4:	e2433001 	sub	r3, r3, #1
     5b8:	e1530005 	cmp	r3, r5
     5bc:	e5943000 	ldr	r3, [r4]
     5c0:	05875004 	streq	r5, [r7, #4]
     5c4:	1584a000 	strne	r10, [r4]
     5c8:	e3530000 	cmp	r3, #0
     5cc:	0afffff1 	beq	598 <__call_exitprocs+0x70>
     5d0:	e5971188 	ldr	r1, [r7, #392]	; 0x188
     5d4:	e1a02519 	lsl	r2, r9, r5
     5d8:	e1120001 	tst	r2, r1
     5dc:	e5978004 	ldr	r8, [r7, #4]
     5e0:	0a000024 	beq	678 <__call_exitprocs+0x150>
     5e4:	e597118c 	ldr	r1, [r7, #396]	; 0x18c
     5e8:	e1120001 	tst	r2, r1
     5ec:	1a000024 	bne	684 <__call_exitprocs+0x15c>
     5f0:	e5941080 	ldr	r1, [r4, #128]	; 0x80
     5f4:	e59d0004 	ldr	r0, [sp, #4]
     5f8:	e1a0e00f 	mov	lr, pc
     5fc:	e12fff13 	bx	r3
     600:	e5973004 	ldr	r3, [r7, #4]
     604:	e1530008 	cmp	r3, r8
     608:	1affffd3 	bne	55c <__call_exitprocs+0x34>
     60c:	e59b3000 	ldr	r3, [r11]
     610:	e1530007 	cmp	r3, r7
     614:	1affffd0 	bne	55c <__call_exitprocs+0x34>
     618:	e2455001 	sub	r5, r5, #1
     61c:	e3750001 	cmn	r5, #1
     620:	e2444004 	sub	r4, r4, #4
     624:	1affffdf 	bne	5a8 <__call_exitprocs+0x80>
     628:	e59f3078 	ldr	r3, [pc, #120]	; 6a8 <__call_exitprocs+0x180>
     62c:	e3530000 	cmp	r3, #0
     630:	0a00000b 	beq	664 <__call_exitprocs+0x13c>
     634:	e5973004 	ldr	r3, [r7, #4]
     638:	e3530000 	cmp	r3, #0
     63c:	1a000014 	bne	694 <__call_exitprocs+0x16c>
     640:	e5973000 	ldr	r3, [r7]
     644:	e3530000 	cmp	r3, #0
     648:	0a000005 	beq	664 <__call_exitprocs+0x13c>
     64c:	e1a00007 	mov	r0, r7
     650:	e58b3000 	str	r3, [r11]
     654:	e320f000 	nop	{0}
     658:	e59b7000 	ldr	r7, [r11]
     65c:	e3570000 	cmp	r7, #0
     660:	1affffc3 	bne	574 <__call_exitprocs+0x4c>
     664:	e59f0034 	ldr	r0, [pc, #52]	; 6a0 <__call_exitprocs+0x178>
     668:	eb000b1c 	bl	32e0 <__generic_gxx_recursive_mutex_unlock>
     66c:	e28dd014 	add	sp, sp, #20
     670:	e8bd4ff0 	pop	{r4, r5, r6, r7, r8, r9, r10, r11, lr}
     674:	e12fff1e 	bx	lr
     678:	e1a0e00f 	mov	lr, pc
     67c:	e12fff13 	bx	r3
     680:	eaffffde 	b	600 <__call_exitprocs+0xd8>
     684:	e5940080 	ldr	r0, [r4, #128]	; 0x80
     688:	e1a0e00f 	mov	lr, pc
     68c:	e12fff13 	bx	r3
     690:	eaffffda 	b	600 <__call_exitprocs+0xd8>
     694:	e1a0b007 	mov	r11, r7
     698:	e5977000 	ldr	r7, [r7]
     69c:	eaffffee 	b	65c <__call_exitprocs+0x134>
     6a0:	00004424 	.word	0x00004424
     6a4:	00003b44 	.word	0x00003b44
     6a8:	00000000 	.word	0x00000000

000006ac <__init___atexit_lock>:
     6ac:	e92d4010 	push	{r4, lr}
     6b0:	e59f0008 	ldr	r0, [pc, #8]	; 6c0 <__init___atexit_lock+0x14>
     6b4:	eb000b05 	bl	32d0 <__generic_gxx_recursive_mutex_init_function>
     6b8:	e8bd4010 	pop	{r4, lr}
     6bc:	e12fff1e 	bx	lr
     6c0:	00004424 	.word	0x00004424

000006c4 <register_fini>:
     6c4:	e59f3018 	ldr	r3, [pc, #24]	; 6e4 <register_fini+0x20>
     6c8:	e3530000 	cmp	r3, #0
     6cc:	012fff1e 	bxeq	lr
     6d0:	e92d4010 	push	{r4, lr}
     6d4:	e59f000c 	ldr	r0, [pc, #12]	; 6e8 <register_fini+0x24>
     6d8:	ebfffedb 	bl	24c <atexit>
     6dc:	e8bd4010 	pop	{r4, lr}
     6e0:	e12fff1e 	bx	lr
     6e4:	00003b84 	.word	0x00003b84
     6e8:	00000b00 	.word	0x00000b00

000006ec <_cleanup_r>:
     6ec:	e92d4010 	push	{r4, lr}
     6f0:	e59f1008 	ldr	r1, [pc, #8]	; 700 <_cleanup_r+0x14>
     6f4:	eb00026b 	bl	10a8 <_fwalk_reent>
     6f8:	e8bd4010 	pop	{r4, lr}
     6fc:	e12fff1e 	bx	lr
     700:	00002528 	.word	0x00002528

00000704 <std.isra.0>:
     704:	e3a03000 	mov	r3, #0
     708:	e92d4010 	push	{r4, lr}
     70c:	e1a04000 	mov	r4, r0
     710:	e1c010bc 	strh	r1, [r0, #12]
     714:	e1c020be 	strh	r2, [r0, #14]
     718:	e5803000 	str	r3, [r0]
     71c:	e5803004 	str	r3, [r0, #4]
     720:	e5803008 	str	r3, [r0, #8]
     724:	e5803064 	str	r3, [r0, #100]	; 0x64
     728:	e5803010 	str	r3, [r0, #16]
     72c:	e5803014 	str	r3, [r0, #20]
     730:	e5803018 	str	r3, [r0, #24]
     734:	e1a01003 	mov	r1, r3
     738:	e3a02008 	mov	r2, #8
     73c:	e280005c 	add	r0, r0, #92	; 0x5c
     740:	eb00052e 	bl	1c00 <memset>
     744:	e59f002c 	ldr	r0, [pc, #44]	; 778 <std.isra.0+0x74>
     748:	e59f102c 	ldr	r1, [pc, #44]	; 77c <std.isra.0+0x78>
     74c:	e59f202c 	ldr	r2, [pc, #44]	; 780 <std.isra.0+0x7c>
     750:	e59f302c 	ldr	r3, [pc, #44]	; 784 <std.isra.0+0x80>
     754:	e5840020 	str	r0, [r4, #32]
     758:	e584401c 	str	r4, [r4, #28]
     75c:	e5841024 	str	r1, [r4, #36]	; 0x24
     760:	e5842028 	str	r2, [r4, #40]	; 0x28
     764:	e584302c 	str	r3, [r4, #44]	; 0x2c
     768:	e2840058 	add	r0, r4, #88	; 0x58
     76c:	eb000ad7 	bl	32d0 <__generic_gxx_recursive_mutex_init_function>
     770:	e8bd4010 	pop	{r4, lr}
     774:	e12fff1e 	bx	lr
     778:	00002274 	.word	0x00002274
     77c:	000022b0 	.word	0x000022b0
     780:	00002308 	.word	0x00002308
     784:	00002338 	.word	0x00002338

00000788 <__fp_lock>:
     788:	e5903064 	ldr	r3, [r0, #100]	; 0x64
     78c:	e3130001 	tst	r3, #1
     790:	1a000002 	bne	7a0 <__fp_lock+0x18>
     794:	e1d030bc 	ldrh	r3, [r0, #12]
     798:	e3130c02 	tst	r3, #512	; 0x200
     79c:	0a000001 	beq	7a8 <__fp_lock+0x20>
     7a0:	e3a00000 	mov	r0, #0
     7a4:	e12fff1e 	bx	lr
     7a8:	e92d4010 	push	{r4, lr}
     7ac:	e2800058 	add	r0, r0, #88	; 0x58
     7b0:	eb000acc 	bl	32e8 <__generic_gxx_recursive_mutex_lock>
     7b4:	e3a00000 	mov	r0, #0
     7b8:	e8bd4010 	pop	{r4, lr}
     7bc:	e12fff1e 	bx	lr

000007c0 <__fp_unlock>:
     7c0:	e5903064 	ldr	r3, [r0, #100]	; 0x64
     7c4:	e3130001 	tst	r3, #1
     7c8:	1a000002 	bne	7d8 <__fp_unlock+0x18>
     7cc:	e1d030bc 	ldrh	r3, [r0, #12]
     7d0:	e3130c02 	tst	r3, #512	; 0x200
     7d4:	0a000001 	beq	7e0 <__fp_unlock+0x20>
     7d8:	e3a00000 	mov	r0, #0
     7dc:	e12fff1e 	bx	lr
     7e0:	e92d4010 	push	{r4, lr}
     7e4:	e2800058 	add	r0, r0, #88	; 0x58
     7e8:	eb000abc 	bl	32e0 <__generic_gxx_recursive_mutex_unlock>
     7ec:	e3a00000 	mov	r0, #0
     7f0:	e8bd4010 	pop	{r4, lr}
     7f4:	e12fff1e 	bx	lr

000007f8 <__sfmoreglue>:
     7f8:	e2412001 	sub	r2, r1, #1
     7fc:	e92d4070 	push	{r4, r5, r6, lr}
     800:	e0824082 	add	r4, r2, r2, lsl #1
     804:	e0822104 	add	r2, r2, r4, lsl #2
     808:	e1a04182 	lsl	r4, r2, #3
     80c:	e1a06001 	mov	r6, r1
     810:	e2841074 	add	r1, r4, #116	; 0x74
     814:	eb00024a 	bl	1144 <_malloc_r>
     818:	e2505000 	subs	r5, r0, #0
     81c:	0a000006 	beq	83c <__sfmoreglue+0x44>
     820:	e3a01000 	mov	r1, #0
     824:	e285000c 	add	r0, r5, #12
     828:	e5856004 	str	r6, [r5, #4]
     82c:	e2842068 	add	r2, r4, #104	; 0x68
     830:	e5851000 	str	r1, [r5]
     834:	e5850008 	str	r0, [r5, #8]
     838:	eb0004f0 	bl	1c00 <memset>
     83c:	e1a00005 	mov	r0, r5
     840:	e8bd4070 	pop	{r4, r5, r6, lr}
     844:	e12fff1e 	bx	lr

00000848 <_cleanup>:
     848:	e92d4010 	push	{r4, lr}
     84c:	e59f3010 	ldr	r3, [pc, #16]	; 864 <_cleanup+0x1c>
     850:	e59f1010 	ldr	r1, [pc, #16]	; 868 <_cleanup+0x20>
     854:	e5930000 	ldr	r0, [r3]
     858:	eb000212 	bl	10a8 <_fwalk_reent>
     85c:	e8bd4010 	pop	{r4, lr}
     860:	e12fff1e 	bx	lr
     864:	00003b44 	.word	0x00003b44
     868:	00002528 	.word	0x00002528

0000086c <__sinit>:
     86c:	e92d4010 	push	{r4, lr}
     870:	e1a04000 	mov	r4, r0
     874:	e59f007c 	ldr	r0, [pc, #124]	; 8f8 <__sinit+0x8c>
     878:	eb000a9a 	bl	32e8 <__generic_gxx_recursive_mutex_lock>
     87c:	e5942038 	ldr	r2, [r4, #56]	; 0x38
     880:	e3520000 	cmp	r2, #0
     884:	1a000017 	bne	8e8 <__sinit+0x7c>
     888:	e3a00003 	mov	r0, #3
     88c:	e59f1068 	ldr	r1, [pc, #104]	; 8fc <__sinit+0x90>
     890:	e2843fbb 	add	r3, r4, #748	; 0x2ec
     894:	e58432e8 	str	r3, [r4, #744]	; 0x2e8
     898:	e58422e0 	str	r2, [r4, #736]	; 0x2e0
     89c:	e58402e4 	str	r0, [r4, #740]	; 0x2e4
     8a0:	e584103c 	str	r1, [r4, #60]	; 0x3c
     8a4:	e5940004 	ldr	r0, [r4, #4]
     8a8:	e3a01004 	mov	r1, #4
     8ac:	ebffff94 	bl	704 <std.isra.0>
     8b0:	e5940008 	ldr	r0, [r4, #8]
     8b4:	e3a02001 	mov	r2, #1
     8b8:	e3a01009 	mov	r1, #9
     8bc:	ebffff90 	bl	704 <std.isra.0>
     8c0:	e594000c 	ldr	r0, [r4, #12]
     8c4:	e3a02002 	mov	r2, #2
     8c8:	e3a01012 	mov	r1, #18
     8cc:	ebffff8c 	bl	704 <std.isra.0>
     8d0:	e3a03001 	mov	r3, #1
     8d4:	e59f001c 	ldr	r0, [pc, #28]	; 8f8 <__sinit+0x8c>
     8d8:	e5843038 	str	r3, [r4, #56]	; 0x38
     8dc:	eb000a7f 	bl	32e0 <__generic_gxx_recursive_mutex_unlock>
     8e0:	e8bd4010 	pop	{r4, lr}
     8e4:	e12fff1e 	bx	lr
     8e8:	e59f0008 	ldr	r0, [pc, #8]	; 8f8 <__sinit+0x8c>
     8ec:	eb000a7b 	bl	32e0 <__generic_gxx_recursive_mutex_unlock>
     8f0:	e8bd4010 	pop	{r4, lr}
     8f4:	e12fff1e 	bx	lr
     8f8:	00004428 	.word	0x00004428
     8fc:	000006ec 	.word	0x000006ec

00000900 <__sfp>:
     900:	e92d41f0 	push	{r4, r5, r6, r7, r8, lr}
     904:	e1a06000 	mov	r6, r0
     908:	e59f0108 	ldr	r0, [pc, #264]	; a18 <__sfp+0x118>
     90c:	eb000a75 	bl	32e8 <__generic_gxx_recursive_mutex_lock>
     910:	e59f3104 	ldr	r3, [pc, #260]	; a1c <__sfp+0x11c>
     914:	e5935000 	ldr	r5, [r3]
     918:	e5953038 	ldr	r3, [r5, #56]	; 0x38
     91c:	e3530000 	cmp	r3, #0
     920:	0a00002d 	beq	9dc <__sfp+0xdc>
     924:	e3a07004 	mov	r7, #4
     928:	e2855e2e 	add	r5, r5, #736	; 0x2e0
     92c:	e5953004 	ldr	r3, [r5, #4]
     930:	e2533001 	subs	r3, r3, #1
     934:	e5954008 	ldr	r4, [r5, #8]
     938:	5a000004 	bpl	950 <__sfp+0x50>
     93c:	ea000021 	b	9c8 <__sfp+0xc8>
     940:	e2433001 	sub	r3, r3, #1
     944:	e3730001 	cmn	r3, #1
     948:	e2844068 	add	r4, r4, #104	; 0x68
     94c:	0a00001d 	beq	9c8 <__sfp+0xc8>
     950:	e1d420fc 	ldrsh	r2, [r4, #12]
     954:	e3520000 	cmp	r2, #0
     958:	1afffff8 	bne	940 <__sfp+0x40>
     95c:	e3a05000 	mov	r5, #0
     960:	e3e02000 	mvn	r2, #0
     964:	e3a03001 	mov	r3, #1
     968:	e1c420be 	strh	r2, [r4, #14]
     96c:	e1c430bc 	strh	r3, [r4, #12]
     970:	e2840058 	add	r0, r4, #88	; 0x58
     974:	e5845064 	str	r5, [r4, #100]	; 0x64
     978:	eb000a54 	bl	32d0 <__generic_gxx_recursive_mutex_init_function>
     97c:	e59f0094 	ldr	r0, [pc, #148]	; a18 <__sfp+0x118>
     980:	eb000a56 	bl	32e0 <__generic_gxx_recursive_mutex_unlock>
     984:	e5845000 	str	r5, [r4]
     988:	e5845008 	str	r5, [r4, #8]
     98c:	e5845004 	str	r5, [r4, #4]
     990:	e5845010 	str	r5, [r4, #16]
     994:	e5845014 	str	r5, [r4, #20]
     998:	e5845018 	str	r5, [r4, #24]
     99c:	e1a01005 	mov	r1, r5
     9a0:	e3a02008 	mov	r2, #8
     9a4:	e284005c 	add	r0, r4, #92	; 0x5c
     9a8:	eb000494 	bl	1c00 <memset>
     9ac:	e5845030 	str	r5, [r4, #48]	; 0x30
     9b0:	e5845034 	str	r5, [r4, #52]	; 0x34
     9b4:	e5845044 	str	r5, [r4, #68]	; 0x44
     9b8:	e5845048 	str	r5, [r4, #72]	; 0x48
     9bc:	e1a00004 	mov	r0, r4
     9c0:	e8bd41f0 	pop	{r4, r5, r6, r7, r8, lr}
     9c4:	e12fff1e 	bx	lr
     9c8:	e5954000 	ldr	r4, [r5]
     9cc:	e3540000 	cmp	r4, #0
     9d0:	0a000004 	beq	9e8 <__sfp+0xe8>
     9d4:	e1a05004 	mov	r5, r4
     9d8:	eaffffd3 	b	92c <__sfp+0x2c>
     9dc:	e1a00005 	mov	r0, r5
     9e0:	ebffffa1 	bl	86c <__sinit>
     9e4:	eaffffce 	b	924 <__sfp+0x24>
     9e8:	e1a01007 	mov	r1, r7
     9ec:	e1a00006 	mov	r0, r6
     9f0:	ebffff80 	bl	7f8 <__sfmoreglue>
     9f4:	e3500000 	cmp	r0, #0
     9f8:	e1a04000 	mov	r4, r0
     9fc:	e5850000 	str	r0, [r5]
     a00:	1afffff3 	bne	9d4 <__sfp+0xd4>
     a04:	e59f000c 	ldr	r0, [pc, #12]	; a18 <__sfp+0x118>
     a08:	eb000a34 	bl	32e0 <__generic_gxx_recursive_mutex_unlock>
     a0c:	e3a0300c 	mov	r3, #12
     a10:	e5863000 	str	r3, [r6]
     a14:	eaffffe8 	b	9bc <__sfp+0xbc>
     a18:	0000442c 	.word	0x0000442c
     a1c:	00003b44 	.word	0x00003b44

00000a20 <__sfp_lock_acquire>:
     a20:	e92d4010 	push	{r4, lr}
     a24:	e59f0008 	ldr	r0, [pc, #8]	; a34 <__sfp_lock_acquire+0x14>
     a28:	eb000a2e 	bl	32e8 <__generic_gxx_recursive_mutex_lock>
     a2c:	e8bd4010 	pop	{r4, lr}
     a30:	e12fff1e 	bx	lr
     a34:	0000442c 	.word	0x0000442c

00000a38 <__sfp_lock_release>:
     a38:	e92d4010 	push	{r4, lr}
     a3c:	e59f0008 	ldr	r0, [pc, #8]	; a4c <__sfp_lock_release+0x14>
     a40:	eb000a26 	bl	32e0 <__generic_gxx_recursive_mutex_unlock>
     a44:	e8bd4010 	pop	{r4, lr}
     a48:	e12fff1e 	bx	lr
     a4c:	0000442c 	.word	0x0000442c

00000a50 <__sinit_lock_acquire>:
     a50:	e92d4010 	push	{r4, lr}
     a54:	e59f0008 	ldr	r0, [pc, #8]	; a64 <__sinit_lock_acquire+0x14>
     a58:	eb000a22 	bl	32e8 <__generic_gxx_recursive_mutex_lock>
     a5c:	e8bd4010 	pop	{r4, lr}
     a60:	e12fff1e 	bx	lr
     a64:	00004428 	.word	0x00004428

00000a68 <__sinit_lock_release>:
     a68:	e92d4010 	push	{r4, lr}
     a6c:	e59f0008 	ldr	r0, [pc, #8]	; a7c <__sinit_lock_release+0x14>
     a70:	eb000a1a 	bl	32e0 <__generic_gxx_recursive_mutex_unlock>
     a74:	e8bd4010 	pop	{r4, lr}
     a78:	e12fff1e 	bx	lr
     a7c:	00004428 	.word	0x00004428

00000a80 <__fp_lock_all>:
     a80:	e92d4010 	push	{r4, lr}
     a84:	e59f0014 	ldr	r0, [pc, #20]	; aa0 <__fp_lock_all+0x20>
     a88:	eb000a16 	bl	32e8 <__generic_gxx_recursive_mutex_lock>
     a8c:	eb0001a8 	bl	1134 <__getreent>
     a90:	e59f100c 	ldr	r1, [pc, #12]	; aa4 <__fp_lock_all+0x24>
     a94:	eb000162 	bl	1024 <_fwalk>
     a98:	e8bd4010 	pop	{r4, lr}
     a9c:	e12fff1e 	bx	lr
     aa0:	0000442c 	.word	0x0000442c
     aa4:	00000788 	.word	0x00000788

00000aa8 <__fp_unlock_all>:
     aa8:	e92d4010 	push	{r4, lr}
     aac:	eb0001a0 	bl	1134 <__getreent>
     ab0:	e59f1010 	ldr	r1, [pc, #16]	; ac8 <__fp_unlock_all+0x20>
     ab4:	eb00015a 	bl	1024 <_fwalk>
     ab8:	e59f000c 	ldr	r0, [pc, #12]	; acc <__fp_unlock_all+0x24>
     abc:	eb000a07 	bl	32e0 <__generic_gxx_recursive_mutex_unlock>
     ac0:	e8bd4010 	pop	{r4, lr}
     ac4:	e12fff1e 	bx	lr
     ac8:	000007c0 	.word	0x000007c0
     acc:	0000442c 	.word	0x0000442c

00000ad0 <__init___sfp_lock>:
     ad0:	e92d4010 	push	{r4, lr}
     ad4:	e59f0008 	ldr	r0, [pc, #8]	; ae4 <__init___sfp_lock+0x14>
     ad8:	eb0009fc 	bl	32d0 <__generic_gxx_recursive_mutex_init_function>
     adc:	e8bd4010 	pop	{r4, lr}
     ae0:	e12fff1e 	bx	lr
     ae4:	0000442c 	.word	0x0000442c

00000ae8 <__init___sinit_lock>:
     ae8:	e92d4010 	push	{r4, lr}
     aec:	e59f0008 	ldr	r0, [pc, #8]	; afc <__init___sinit_lock+0x14>
     af0:	eb0009f6 	bl	32d0 <__generic_gxx_recursive_mutex_init_function>
     af4:	e8bd4010 	pop	{r4, lr}
     af8:	e12fff1e 	bx	lr
     afc:	00004428 	.word	0x00004428

00000b00 <__libc_fini_array>:
     b00:	e92d4070 	push	{r4, r5, r6, lr}
     b04:	e59f5034 	ldr	r5, [pc, #52]	; b40 <__libc_fini_array+0x40>
     b08:	e59f4034 	ldr	r4, [pc, #52]	; b44 <__libc_fini_array+0x44>
     b0c:	e0444005 	sub	r4, r4, r5
     b10:	e1b04144 	asrs	r4, r4, #2
     b14:	10855104 	addne	r5, r5, r4, lsl #2
     b18:	0a000005 	beq	b34 <__libc_fini_array+0x34>
     b1c:	e2444001 	sub	r4, r4, #1
     b20:	e5353004 	ldr	r3, [r5, #-4]!
     b24:	e1a0e00f 	mov	lr, pc
     b28:	e12fff13 	bx	r3
     b2c:	e3540000 	cmp	r4, #0
     b30:	1afffff9 	bne	b1c <__libc_fini_array+0x1c>
     b34:	eb000c12 	bl	3b84 <__libc_fini>
     b38:	e8bd4070 	pop	{r4, r5, r6, lr}
     b3c:	e12fff1e 	bx	lr
     b40:	00003b9c 	.word	0x00003b9c
     b44:	00003ba0 	.word	0x00003ba0

00000b48 <__sfvwrite_r>:
     b48:	e5923008 	ldr	r3, [r2, #8]
     b4c:	e3530000 	cmp	r3, #0
     b50:	0a0000cb 	beq	e84 <__sfvwrite_r+0x33c>
     b54:	e92d4ff0 	push	{r4, r5, r6, r7, r8, r9, r10, r11, lr}
     b58:	e1d130fc 	ldrsh	r3, [r1, #12]
     b5c:	e1a03803 	lsl	r3, r3, #16
     b60:	e3130702 	tst	r3, #524288	; 0x80000
     b64:	e24dd00c 	sub	sp, sp, #12
     b68:	e1a04001 	mov	r4, r1
     b6c:	e1a0b000 	mov	r11, r0
     b70:	e1a06002 	mov	r6, r2
     b74:	e1a0a823 	lsr	r10, r3, #16
     b78:	0a000020 	beq	c00 <__sfvwrite_r+0xb8>
     b7c:	e5912010 	ldr	r2, [r1, #16]
     b80:	e3520000 	cmp	r2, #0
     b84:	0a00001d 	beq	c00 <__sfvwrite_r+0xb8>
     b88:	e21a9002 	ands	r9, r10, #2
     b8c:	e5965000 	ldr	r5, [r6]
     b90:	0a000025 	beq	c2c <__sfvwrite_r+0xe4>
     b94:	e3a08000 	mov	r8, #0
     b98:	e1a07008 	mov	r7, r8
     b9c:	e59f947c 	ldr	r9, [pc, #1148]	; 1020 <__sfvwrite_r+0x4d8>
     ba0:	e3570000 	cmp	r7, #0
     ba4:	0a00004a 	beq	cd4 <__sfvwrite_r+0x18c>
     ba8:	e1570009 	cmp	r7, r9
     bac:	31a03007 	movcc	r3, r7
     bb0:	21a03009 	movcs	r3, r9
     bb4:	e594a024 	ldr	r10, [r4, #36]	; 0x24
     bb8:	e1a02008 	mov	r2, r8
     bbc:	e594101c 	ldr	r1, [r4, #28]
     bc0:	e1a0000b 	mov	r0, r11
     bc4:	e1a0e00f 	mov	lr, pc
     bc8:	e12fff1a 	bx	r10
     bcc:	e3500000 	cmp	r0, #0
     bd0:	da000089 	ble	dfc <__sfvwrite_r+0x2b4>
     bd4:	e5963008 	ldr	r3, [r6, #8]
     bd8:	e0433000 	sub	r3, r3, r0
     bdc:	e3530000 	cmp	r3, #0
     be0:	e0888000 	add	r8, r8, r0
     be4:	e0477000 	sub	r7, r7, r0
     be8:	e5863008 	str	r3, [r6, #8]
     bec:	1affffeb 	bne	ba0 <__sfvwrite_r+0x58>
     bf0:	e3a00000 	mov	r0, #0
     bf4:	e28dd00c 	add	sp, sp, #12
     bf8:	e8bd4ff0 	pop	{r4, r5, r6, r7, r8, r9, r10, r11, lr}
     bfc:	e12fff1e 	bx	lr
     c00:	e1a01004 	mov	r1, r4
     c04:	e1a0000b 	mov	r0, r11
     c08:	eb0005e1 	bl	2394 <__swsetup_r>
     c0c:	e3500000 	cmp	r0, #0
     c10:	1a0000fc 	bne	1008 <__sfvwrite_r+0x4c0>
     c14:	e1d430fc 	ldrsh	r3, [r4, #12]
     c18:	e1a03803 	lsl	r3, r3, #16
     c1c:	e1a0a823 	lsr	r10, r3, #16
     c20:	e21a9002 	ands	r9, r10, #2
     c24:	e5965000 	ldr	r5, [r6]
     c28:	1affffd9 	bne	b94 <__sfvwrite_r+0x4c>
     c2c:	e21aa001 	ands	r10, r10, #1
     c30:	01a0900a 	moveq	r9, r10
     c34:	1a000094 	bne	e8c <__sfvwrite_r+0x344>
     c38:	e3590000 	cmp	r9, #0
     c3c:	0a000020 	beq	cc4 <__sfvwrite_r+0x17c>
     c40:	e3130402 	tst	r3, #33554432	; 0x2000000
     c44:	e5947008 	ldr	r7, [r4, #8]
     c48:	e1a03823 	lsr	r3, r3, #16
     c4c:	0a000024 	beq	ce4 <__sfvwrite_r+0x19c>
     c50:	e1590007 	cmp	r9, r7
     c54:	e1a08007 	mov	r8, r7
     c58:	3a000037 	bcc	d3c <__sfvwrite_r+0x1f4>
     c5c:	e3130d12 	tst	r3, #1152	; 0x480
     c60:	1a00003a 	bne	d50 <__sfvwrite_r+0x208>
     c64:	e1a03009 	mov	r3, r9
     c68:	e5940000 	ldr	r0, [r4]
     c6c:	e1a02008 	mov	r2, r8
     c70:	e1a0100a 	mov	r1, r10
     c74:	e58d3004 	str	r3, [sp, #4]
     c78:	eb00038e 	bl	1ab8 <memmove>
     c7c:	e5941008 	ldr	r1, [r4, #8]
     c80:	e5942000 	ldr	r2, [r4]
     c84:	e0417007 	sub	r7, r1, r7
     c88:	e0828008 	add	r8, r2, r8
     c8c:	e5847008 	str	r7, [r4, #8]
     c90:	e5848000 	str	r8, [r4]
     c94:	e59d3004 	ldr	r3, [sp, #4]
     c98:	e5962008 	ldr	r2, [r6, #8]
     c9c:	e0422003 	sub	r2, r2, r3
     ca0:	e3520000 	cmp	r2, #0
     ca4:	e08aa003 	add	r10, r10, r3
     ca8:	e0499003 	sub	r9, r9, r3
     cac:	e5862008 	str	r2, [r6, #8]
     cb0:	0affffce 	beq	bf0 <__sfvwrite_r+0xa8>
     cb4:	e1d430fc 	ldrsh	r3, [r4, #12]
     cb8:	e3590000 	cmp	r9, #0
     cbc:	e1a03803 	lsl	r3, r3, #16
     cc0:	1affffde 	bne	c40 <__sfvwrite_r+0xf8>
     cc4:	e595a000 	ldr	r10, [r5]
     cc8:	e5959004 	ldr	r9, [r5, #4]
     ccc:	e2855008 	add	r5, r5, #8
     cd0:	eaffffd8 	b	c38 <__sfvwrite_r+0xf0>
     cd4:	e5958000 	ldr	r8, [r5]
     cd8:	e5957004 	ldr	r7, [r5, #4]
     cdc:	e2855008 	add	r5, r5, #8
     ce0:	eaffffae 	b	ba0 <__sfvwrite_r+0x58>
     ce4:	e5940000 	ldr	r0, [r4]
     ce8:	e5943010 	ldr	r3, [r4, #16]
     cec:	e1500003 	cmp	r0, r3
     cf0:	8a000002 	bhi	d00 <__sfvwrite_r+0x1b8>
     cf4:	e5948014 	ldr	r8, [r4, #20]
     cf8:	e1590008 	cmp	r9, r8
     cfc:	2a000045 	bcs	e18 <__sfvwrite_r+0x2d0>
     d00:	e1570009 	cmp	r7, r9
     d04:	21a07009 	movcs	r7, r9
     d08:	e1a0100a 	mov	r1, r10
     d0c:	e1a02007 	mov	r2, r7
     d10:	eb000368 	bl	1ab8 <memmove>
     d14:	e5942008 	ldr	r2, [r4, #8]
     d18:	e5943000 	ldr	r3, [r4]
     d1c:	e0422007 	sub	r2, r2, r7
     d20:	e0833007 	add	r3, r3, r7
     d24:	e3520000 	cmp	r2, #0
     d28:	e5842008 	str	r2, [r4, #8]
     d2c:	e5843000 	str	r3, [r4]
     d30:	0a00002c 	beq	de8 <__sfvwrite_r+0x2a0>
     d34:	e1a03007 	mov	r3, r7
     d38:	eaffffd6 	b	c98 <__sfvwrite_r+0x150>
     d3c:	e1a07009 	mov	r7, r9
     d40:	e1a03009 	mov	r3, r9
     d44:	e1a08009 	mov	r8, r9
     d48:	e5940000 	ldr	r0, [r4]
     d4c:	eaffffc6 	b	c6c <__sfvwrite_r+0x124>
     d50:	e5941010 	ldr	r1, [r4, #16]
     d54:	e5948000 	ldr	r8, [r4]
     d58:	e5942014 	ldr	r2, [r4, #20]
     d5c:	e0488001 	sub	r8, r8, r1
     d60:	e0822082 	add	r2, r2, r2, lsl #1
     d64:	e2887001 	add	r7, r8, #1
     d68:	e0822fa2 	add	r2, r2, r2, lsr #31
     d6c:	e0877009 	add	r7, r7, r9
     d70:	e1a020c2 	asr	r2, r2, #1
     d74:	e1570002 	cmp	r7, r2
     d78:	91a07002 	movls	r7, r2
     d7c:	81a02007 	movhi	r2, r7
     d80:	e3130b01 	tst	r3, #1024	; 0x400
     d84:	0a000032 	beq	e54 <__sfvwrite_r+0x30c>
     d88:	e1a01002 	mov	r1, r2
     d8c:	e1a0000b 	mov	r0, r11
     d90:	eb0000eb 	bl	1144 <_malloc_r>
     d94:	e2503000 	subs	r3, r0, #0
     d98:	0a00009c 	beq	1010 <__sfvwrite_r+0x4c8>
     d9c:	e1a02008 	mov	r2, r8
     da0:	e5941010 	ldr	r1, [r4, #16]
     da4:	e58d3004 	str	r3, [sp, #4]
     da8:	eb0002fd 	bl	19a4 <memcpy>
     dac:	e1d420bc 	ldrh	r2, [r4, #12]
     db0:	e3c22d12 	bic	r2, r2, #1152	; 0x480
     db4:	e3822080 	orr	r2, r2, #128	; 0x80
     db8:	e1c420bc 	strh	r2, [r4, #12]
     dbc:	e59d3004 	ldr	r3, [sp, #4]
     dc0:	e0830008 	add	r0, r3, r8
     dc4:	e0478008 	sub	r8, r7, r8
     dc8:	e5843010 	str	r3, [r4, #16]
     dcc:	e5848008 	str	r8, [r4, #8]
     dd0:	e5847014 	str	r7, [r4, #20]
     dd4:	e5840000 	str	r0, [r4]
     dd8:	e1a07009 	mov	r7, r9
     ddc:	e1a03009 	mov	r3, r9
     de0:	e1a08009 	mov	r8, r9
     de4:	eaffffa0 	b	c6c <__sfvwrite_r+0x124>
     de8:	e1a01004 	mov	r1, r4
     dec:	e1a0000b 	mov	r0, r11
     df0:	eb0006bb 	bl	28e4 <_fflush_r>
     df4:	e3500000 	cmp	r0, #0
     df8:	0affffcd 	beq	d34 <__sfvwrite_r+0x1ec>
     dfc:	e1d430fc 	ldrsh	r3, [r4, #12]
     e00:	e3e00000 	mvn	r0, #0
     e04:	e3833040 	orr	r3, r3, #64	; 0x40
     e08:	e1c430bc 	strh	r3, [r4, #12]
     e0c:	e28dd00c 	add	sp, sp, #12
     e10:	e8bd4ff0 	pop	{r4, r5, r6, r7, r8, r9, r10, r11, lr}
     e14:	e12fff1e 	bx	lr
     e18:	e3790106 	cmn	r9, #-2147483647	; 0x80000001
     e1c:	31a00009 	movcc	r0, r9
     e20:	23e00102 	mvncs	r0, #-2147483648	; 0x80000000
     e24:	e1a01008 	mov	r1, r8
     e28:	eb0008ca 	bl	3158 <__aeabi_idiv>
     e2c:	e5947024 	ldr	r7, [r4, #36]	; 0x24
     e30:	e0030098 	mul	r3, r8, r0
     e34:	e1a0200a 	mov	r2, r10
     e38:	e594101c 	ldr	r1, [r4, #28]
     e3c:	e1a0000b 	mov	r0, r11
     e40:	e1a0e00f 	mov	lr, pc
     e44:	e12fff17 	bx	r7
     e48:	e2503000 	subs	r3, r0, #0
     e4c:	caffff91 	bgt	c98 <__sfvwrite_r+0x150>
     e50:	eaffffe9 	b	dfc <__sfvwrite_r+0x2b4>
     e54:	e1a0000b 	mov	r0, r11
     e58:	eb0003bf 	bl	1d5c <_realloc_r>
     e5c:	e2503000 	subs	r3, r0, #0
     e60:	1affffd6 	bne	dc0 <__sfvwrite_r+0x278>
     e64:	e5941010 	ldr	r1, [r4, #16]
     e68:	e1a0000b 	mov	r0, r11
     e6c:	eb000712 	bl	2abc <_free_r>
     e70:	e3a0200c 	mov	r2, #12
     e74:	e1d430fc 	ldrsh	r3, [r4, #12]
     e78:	e58b2000 	str	r2, [r11]
     e7c:	e3c33080 	bic	r3, r3, #128	; 0x80
     e80:	eaffffde 	b	e00 <__sfvwrite_r+0x2b8>
     e84:	e3a00000 	mov	r0, #0
     e88:	e12fff1e 	bx	lr
     e8c:	e1a00009 	mov	r0, r9
     e90:	e1a0a009 	mov	r10, r9
     e94:	e1a08009 	mov	r8, r9
     e98:	ea000026 	b	f38 <__sfvwrite_r+0x3f0>
     e9c:	e3500000 	cmp	r0, #0
     ea0:	0a00002d 	beq	f5c <__sfvwrite_r+0x414>
     ea4:	e1590008 	cmp	r9, r8
     ea8:	31a01009 	movcc	r1, r9
     eac:	21a01008 	movcs	r1, r8
     eb0:	e5942010 	ldr	r2, [r4, #16]
     eb4:	e594c014 	ldr	r12, [r4, #20]
     eb8:	e5943008 	ldr	r3, [r4, #8]
     ebc:	e5940000 	ldr	r0, [r4]
     ec0:	e08c3003 	add	r3, r12, r3
     ec4:	e1500002 	cmp	r0, r2
     ec8:	93a02000 	movls	r2, #0
     ecc:	83a02001 	movhi	r2, #1
     ed0:	e1510003 	cmp	r1, r3
     ed4:	d3a02000 	movle	r2, #0
     ed8:	e3520000 	cmp	r2, #0
     edc:	e1a07001 	mov	r7, r1
     ee0:	1a000038 	bne	fc8 <__sfvwrite_r+0x480>
     ee4:	e151000c 	cmp	r1, r12
     ee8:	ba000024 	blt	f80 <__sfvwrite_r+0x438>
     eec:	e5947024 	ldr	r7, [r4, #36]	; 0x24
     ef0:	e1a0300c 	mov	r3, r12
     ef4:	e1a0200a 	mov	r2, r10
     ef8:	e594101c 	ldr	r1, [r4, #28]
     efc:	e1a0000b 	mov	r0, r11
     f00:	e1a0e00f 	mov	lr, pc
     f04:	e12fff17 	bx	r7
     f08:	e2507000 	subs	r7, r0, #0
     f0c:	daffffba 	ble	dfc <__sfvwrite_r+0x2b4>
     f10:	e0599007 	subs	r9, r9, r7
     f14:	13a00001 	movne	r0, #1
     f18:	0a000024 	beq	fb0 <__sfvwrite_r+0x468>
     f1c:	e5963008 	ldr	r3, [r6, #8]
     f20:	e0433007 	sub	r3, r3, r7
     f24:	e3530000 	cmp	r3, #0
     f28:	e08aa007 	add	r10, r10, r7
     f2c:	e0488007 	sub	r8, r8, r7
     f30:	e5863008 	str	r3, [r6, #8]
     f34:	0affff2d 	beq	bf0 <__sfvwrite_r+0xa8>
     f38:	e3580000 	cmp	r8, #0
     f3c:	1affffd6 	bne	e9c <__sfvwrite_r+0x354>
     f40:	e2853008 	add	r3, r5, #8
     f44:	e5138004 	ldr	r8, [r3, #-4]
     f48:	e3580000 	cmp	r8, #0
     f4c:	e1a05003 	mov	r5, r3
     f50:	e513a008 	ldr	r10, [r3, #-8]
     f54:	e2833008 	add	r3, r3, #8
     f58:	0afffff9 	beq	f44 <__sfvwrite_r+0x3fc>
     f5c:	e1a02008 	mov	r2, r8
     f60:	e3a0100a 	mov	r1, #10
     f64:	e1a0000a 	mov	r0, r10
     f68:	eb000249 	bl	1894 <memchr>
     f6c:	e3500000 	cmp	r0, #0
     f70:	12800001 	addne	r0, r0, #1
     f74:	1040900a 	subne	r9, r0, r10
     f78:	02889001 	addeq	r9, r8, #1
     f7c:	eaffffc8 	b	ea4 <__sfvwrite_r+0x35c>
     f80:	e1a02001 	mov	r2, r1
     f84:	e1a0100a 	mov	r1, r10
     f88:	eb0002ca 	bl	1ab8 <memmove>
     f8c:	e5942008 	ldr	r2, [r4, #8]
     f90:	e5943000 	ldr	r3, [r4]
     f94:	e0422007 	sub	r2, r2, r7
     f98:	e0833007 	add	r3, r3, r7
     f9c:	e0599007 	subs	r9, r9, r7
     fa0:	e5842008 	str	r2, [r4, #8]
     fa4:	e5843000 	str	r3, [r4]
     fa8:	13a00001 	movne	r0, #1
     fac:	1affffda 	bne	f1c <__sfvwrite_r+0x3d4>
     fb0:	e1a01004 	mov	r1, r4
     fb4:	e1a0000b 	mov	r0, r11
     fb8:	eb000649 	bl	28e4 <_fflush_r>
     fbc:	e3500000 	cmp	r0, #0
     fc0:	0affffd5 	beq	f1c <__sfvwrite_r+0x3d4>
     fc4:	eaffff8c 	b	dfc <__sfvwrite_r+0x2b4>
     fc8:	e1a02003 	mov	r2, r3
     fcc:	e1a0100a 	mov	r1, r10
     fd0:	e58d3004 	str	r3, [sp, #4]
     fd4:	eb0002b7 	bl	1ab8 <memmove>
     fd8:	e5942000 	ldr	r2, [r4]
     fdc:	e59d3004 	ldr	r3, [sp, #4]
     fe0:	e0822003 	add	r2, r2, r3
     fe4:	e5842000 	str	r2, [r4]
     fe8:	e1a01004 	mov	r1, r4
     fec:	e1a0000b 	mov	r0, r11
     ff0:	eb00063b 	bl	28e4 <_fflush_r>
     ff4:	e3500000 	cmp	r0, #0
     ff8:	e59d3004 	ldr	r3, [sp, #4]
     ffc:	1affff7e 	bne	dfc <__sfvwrite_r+0x2b4>
    1000:	e1a07003 	mov	r7, r3
    1004:	eaffffc1 	b	f10 <__sfvwrite_r+0x3c8>
    1008:	e3e00000 	mvn	r0, #0
    100c:	eafffef8 	b	bf4 <__sfvwrite_r+0xac>
    1010:	e3a0200c 	mov	r2, #12
    1014:	e1d430fc 	ldrsh	r3, [r4, #12]
    1018:	e58b2000 	str	r2, [r11]
    101c:	eaffff77 	b	e00 <__sfvwrite_r+0x2b8>
    1020:	7ffffc00 	.word	0x7ffffc00

00001024 <_fwalk>:
    1024:	e92d41f0 	push	{r4, r5, r6, r7, r8, lr}
    1028:	e2907e2e 	adds	r7, r0, #736	; 0x2e0
    102c:	0a000019 	beq	1098 <_fwalk+0x74>
    1030:	e1a08001 	mov	r8, r1
    1034:	e3a06000 	mov	r6, #0
    1038:	e5975004 	ldr	r5, [r7, #4]
    103c:	e2555001 	subs	r5, r5, #1
    1040:	e5974008 	ldr	r4, [r7, #8]
    1044:	4a00000d 	bmi	1080 <_fwalk+0x5c>
    1048:	e1d430bc 	ldrh	r3, [r4, #12]
    104c:	e3530001 	cmp	r3, #1
    1050:	e2455001 	sub	r5, r5, #1
    1054:	9a000006 	bls	1074 <_fwalk+0x50>
    1058:	e1d430fe 	ldrsh	r3, [r4, #14]
    105c:	e3730001 	cmn	r3, #1
    1060:	0a000003 	beq	1074 <_fwalk+0x50>
    1064:	e1a00004 	mov	r0, r4
    1068:	e1a0e00f 	mov	lr, pc
    106c:	e12fff18 	bx	r8
    1070:	e1866000 	orr	r6, r6, r0
    1074:	e3750001 	cmn	r5, #1
    1078:	e2844068 	add	r4, r4, #104	; 0x68
    107c:	1afffff1 	bne	1048 <_fwalk+0x24>
    1080:	e5977000 	ldr	r7, [r7]
    1084:	e3570000 	cmp	r7, #0
    1088:	1affffea 	bne	1038 <_fwalk+0x14>
    108c:	e1a00006 	mov	r0, r6
    1090:	e8bd41f0 	pop	{r4, r5, r6, r7, r8, lr}
    1094:	e12fff1e 	bx	lr
    1098:	e1a06007 	mov	r6, r7
    109c:	e1a00006 	mov	r0, r6
    10a0:	e8bd41f0 	pop	{r4, r5, r6, r7, r8, lr}
    10a4:	e12fff1e 	bx	lr

000010a8 <_fwalk_reent>:
    10a8:	e92d47f0 	push	{r4, r5, r6, r7, r8, r9, r10, lr}
    10ac:	e2906e2e 	adds	r6, r0, #736	; 0x2e0
    10b0:	0a00001b 	beq	1124 <_fwalk_reent+0x7c>
    10b4:	e1a08001 	mov	r8, r1
    10b8:	e1a07000 	mov	r7, r0
    10bc:	e3a09000 	mov	r9, #0
    10c0:	e5965004 	ldr	r5, [r6, #4]
    10c4:	e2555001 	subs	r5, r5, #1
    10c8:	e5964008 	ldr	r4, [r6, #8]
    10cc:	4a00000e 	bmi	110c <_fwalk_reent+0x64>
    10d0:	e1d430bc 	ldrh	r3, [r4, #12]
    10d4:	e3530001 	cmp	r3, #1
    10d8:	e2455001 	sub	r5, r5, #1
    10dc:	9a000007 	bls	1100 <_fwalk_reent+0x58>
    10e0:	e1d430fe 	ldrsh	r3, [r4, #14]
    10e4:	e3730001 	cmn	r3, #1
    10e8:	0a000004 	beq	1100 <_fwalk_reent+0x58>
    10ec:	e1a01004 	mov	r1, r4
    10f0:	e1a00007 	mov	r0, r7
    10f4:	e1a0e00f 	mov	lr, pc
    10f8:	e12fff18 	bx	r8
    10fc:	e1899000 	orr	r9, r9, r0
    1100:	e3750001 	cmn	r5, #1
    1104:	e2844068 	add	r4, r4, #104	; 0x68
    1108:	1afffff0 	bne	10d0 <_fwalk_reent+0x28>
    110c:	e5966000 	ldr	r6, [r6]
    1110:	e3560000 	cmp	r6, #0
    1114:	1affffe9 	bne	10c0 <_fwalk_reent+0x18>
    1118:	e1a00009 	mov	r0, r9
    111c:	e8bd47f0 	pop	{r4, r5, r6, r7, r8, r9, r10, lr}
    1120:	e12fff1e 	bx	lr
    1124:	e1a09006 	mov	r9, r6
    1128:	e1a00009 	mov	r0, r9
    112c:	e8bd47f0 	pop	{r4, r5, r6, r7, r8, r9, r10, lr}
    1130:	e12fff1e 	bx	lr

00001134 <__getreent>:
    1134:	e59f3004 	ldr	r3, [pc, #4]	; 1140 <__getreent+0xc>
    1138:	e5930000 	ldr	r0, [r3]
    113c:	e12fff1e 	bx	lr
    1140:	00003bc0 	.word	0x00003bc0

00001144 <_malloc_r>:
    1144:	e92d4ff8 	push	{r3, r4, r5, r6, r7, r8, r9, r10, r11, lr}
    1148:	e281600b 	add	r6, r1, #11
    114c:	e3560016 	cmp	r6, #22
    1150:	e1a05000 	mov	r5, r0
    1154:	9a000072 	bls	1324 <_malloc_r+0x1e0>
    1158:	e3c66007 	bic	r6, r6, #7
    115c:	e1510006 	cmp	r1, r6
    1160:	93a01000 	movls	r1, #0
    1164:	83a01001 	movhi	r1, #1
    1168:	e1913fa6 	orrs	r3, r1, r6, lsr #31
    116c:	1a000088 	bne	1394 <_malloc_r+0x250>
    1170:	eb0002e7 	bl	1d14 <__malloc_lock>
    1174:	e3560f7e 	cmp	r6, #504	; 0x1f8
    1178:	3a0001be 	bcc	1878 <_malloc_r+0x734>
    117c:	e1b034a6 	lsrs	r3, r6, #9
    1180:	0a000089 	beq	13ac <_malloc_r+0x268>
    1184:	e3530004 	cmp	r3, #4
    1188:	8a0000cf 	bhi	14cc <_malloc_r+0x388>
    118c:	e1a03326 	lsr	r3, r6, #6
    1190:	e2830039 	add	r0, r3, #57	; 0x39
    1194:	e283c038 	add	r12, r3, #56	; 0x38
    1198:	e1a01180 	lsl	r1, r0, #3
    119c:	e59f76e0 	ldr	r7, [pc, #1760]	; 1884 <_malloc_r+0x740>
    11a0:	e0871001 	add	r1, r7, r1
    11a4:	e5914004 	ldr	r4, [r1, #4]
    11a8:	e2411008 	sub	r1, r1, #8
    11ac:	e1510004 	cmp	r1, r4
    11b0:	1a000005 	bne	11cc <_malloc_r+0x88>
    11b4:	ea00000a 	b	11e4 <_malloc_r+0xa0>
    11b8:	e3520000 	cmp	r2, #0
    11bc:	aa000066 	bge	135c <_malloc_r+0x218>
    11c0:	e594400c 	ldr	r4, [r4, #12]
    11c4:	e1510004 	cmp	r1, r4
    11c8:	0a000005 	beq	11e4 <_malloc_r+0xa0>
    11cc:	e5943004 	ldr	r3, [r4, #4]
    11d0:	e3c33003 	bic	r3, r3, #3
    11d4:	e0432006 	sub	r2, r3, r6
    11d8:	e352000f 	cmp	r2, #15
    11dc:	dafffff5 	ble	11b8 <_malloc_r+0x74>
    11e0:	e1a0000c 	mov	r0, r12
    11e4:	e5974010 	ldr	r4, [r7, #16]
    11e8:	e59fc698 	ldr	r12, [pc, #1688]	; 1888 <_malloc_r+0x744>
    11ec:	e154000c 	cmp	r4, r12
    11f0:	05973004 	ldreq	r3, [r7, #4]
    11f4:	0a000018 	beq	125c <_malloc_r+0x118>
    11f8:	e5943004 	ldr	r3, [r4, #4]
    11fc:	e3c33003 	bic	r3, r3, #3
    1200:	e0432006 	sub	r2, r3, r6
    1204:	e352000f 	cmp	r2, #15
    1208:	ca0000d3 	bgt	155c <_malloc_r+0x418>
    120c:	e3520000 	cmp	r2, #0
    1210:	e587c014 	str	r12, [r7, #20]
    1214:	e587c010 	str	r12, [r7, #16]
    1218:	aa000067 	bge	13bc <_malloc_r+0x278>
    121c:	e3530c02 	cmp	r3, #512	; 0x200
    1220:	2a0000b2 	bcs	14f0 <_malloc_r+0x3ac>
    1224:	e3a08001 	mov	r8, #1
    1228:	e5972004 	ldr	r2, [r7, #4]
    122c:	e1a031a3 	lsr	r3, r3, #3
    1230:	e0831008 	add	r1, r3, r8
    1234:	e1a03143 	asr	r3, r3, #2
    1238:	e1823318 	orr	r3, r2, r8, lsl r3
    123c:	e087e181 	add	lr, r7, r1, lsl #3
    1240:	e7978181 	ldr	r8, [r7, r1, lsl #3]
    1244:	e24e2008 	sub	r2, lr, #8
    1248:	e584200c 	str	r2, [r4, #12]
    124c:	e5848008 	str	r8, [r4, #8]
    1250:	e5873004 	str	r3, [r7, #4]
    1254:	e7874181 	str	r4, [r7, r1, lsl #3]
    1258:	e588400c 	str	r4, [r8, #12]
    125c:	e3a01001 	mov	r1, #1
    1260:	e1a02140 	asr	r2, r0, #2
    1264:	e1a0e211 	lsl	lr, r1, r2
    1268:	e15e0003 	cmp	lr, r3
    126c:	8a00005c 	bhi	13e4 <_malloc_r+0x2a0>
    1270:	e11e0003 	tst	lr, r3
    1274:	1a000008 	bne	129c <_malloc_r+0x158>
    1278:	e1a0e11e 	lsl	lr, lr, r1
    127c:	e3c00003 	bic	r0, r0, #3
    1280:	e11e0003 	tst	lr, r3
    1284:	e2800004 	add	r0, r0, #4
    1288:	1a000003 	bne	129c <_malloc_r+0x158>
    128c:	e1a0e08e 	lsl	lr, lr, #1
    1290:	e11e0003 	tst	lr, r3
    1294:	e2800004 	add	r0, r0, #4
    1298:	0afffffb 	beq	128c <_malloc_r+0x148>
    129c:	e0879180 	add	r9, r7, r0, lsl #3
    12a0:	e1a01009 	mov	r1, r9
    12a4:	e1a04000 	mov	r4, r0
    12a8:	e591800c 	ldr	r8, [r1, #12]
    12ac:	e1510008 	cmp	r1, r8
    12b0:	1a000005 	bne	12cc <_malloc_r+0x188>
    12b4:	ea0000b5 	b	1590 <_malloc_r+0x44c>
    12b8:	e3520000 	cmp	r2, #0
    12bc:	aa0000bd 	bge	15b8 <_malloc_r+0x474>
    12c0:	e598800c 	ldr	r8, [r8, #12]
    12c4:	e1510008 	cmp	r1, r8
    12c8:	0a0000b0 	beq	1590 <_malloc_r+0x44c>
    12cc:	e5983004 	ldr	r3, [r8, #4]
    12d0:	e3c33003 	bic	r3, r3, #3
    12d4:	e0432006 	sub	r2, r3, r6
    12d8:	e352000f 	cmp	r2, #15
    12dc:	dafffff5 	ble	12b8 <_malloc_r+0x174>
    12e0:	e598100c 	ldr	r1, [r8, #12]
    12e4:	e598e008 	ldr	lr, [r8, #8]
    12e8:	e3864001 	orr	r4, r6, #1
    12ec:	e5884004 	str	r4, [r8, #4]
    12f0:	e0886006 	add	r6, r8, r6
    12f4:	e3824001 	orr	r4, r2, #1
    12f8:	e58e100c 	str	r1, [lr, #12]
    12fc:	e1a00005 	mov	r0, r5
    1300:	e581e008 	str	lr, [r1, #8]
    1304:	e5876014 	str	r6, [r7, #20]
    1308:	e5876010 	str	r6, [r7, #16]
    130c:	e9861010 	stmib	r6, {r4, r12}
    1310:	e586c00c 	str	r12, [r6, #12]
    1314:	e7882003 	str	r2, [r8, r3]
    1318:	eb000283 	bl	1d2c <__malloc_unlock>
    131c:	e2884008 	add	r4, r8, #8
    1320:	ea000018 	b	1388 <_malloc_r+0x244>
    1324:	e3510010 	cmp	r1, #16
    1328:	8a000019 	bhi	1394 <_malloc_r+0x250>
    132c:	eb000278 	bl	1d14 <__malloc_lock>
    1330:	e3a06010 	mov	r6, #16
    1334:	e3a03018 	mov	r3, #24
    1338:	e3a00002 	mov	r0, #2
    133c:	e59f7540 	ldr	r7, [pc, #1344]	; 1884 <_malloc_r+0x740>
    1340:	e0873003 	add	r3, r7, r3
    1344:	e5934004 	ldr	r4, [r3, #4]
    1348:	e2432008 	sub	r2, r3, #8
    134c:	e1540002 	cmp	r4, r2
    1350:	0a000093 	beq	15a4 <_malloc_r+0x460>
    1354:	e5943004 	ldr	r3, [r4, #4]
    1358:	e3c33003 	bic	r3, r3, #3
    135c:	e0843003 	add	r3, r4, r3
    1360:	e5932004 	ldr	r2, [r3, #4]
    1364:	e594100c 	ldr	r1, [r4, #12]
    1368:	e594c008 	ldr	r12, [r4, #8]
    136c:	e3822001 	orr	r2, r2, #1
    1370:	e58c100c 	str	r1, [r12, #12]
    1374:	e1a00005 	mov	r0, r5
    1378:	e581c008 	str	r12, [r1, #8]
    137c:	e5832004 	str	r2, [r3, #4]
    1380:	eb000269 	bl	1d2c <__malloc_unlock>
    1384:	e2844008 	add	r4, r4, #8
    1388:	e1a00004 	mov	r0, r4
    138c:	e8bd4ff8 	pop	{r3, r4, r5, r6, r7, r8, r9, r10, r11, lr}
    1390:	e12fff1e 	bx	lr
    1394:	e3a0300c 	mov	r3, #12
    1398:	e3a04000 	mov	r4, #0
    139c:	e5853000 	str	r3, [r5]
    13a0:	e1a00004 	mov	r0, r4
    13a4:	e8bd4ff8 	pop	{r3, r4, r5, r6, r7, r8, r9, r10, r11, lr}
    13a8:	e12fff1e 	bx	lr
    13ac:	e3a01c02 	mov	r1, #512	; 0x200
    13b0:	e3a00040 	mov	r0, #64	; 0x40
    13b4:	e3a0c03f 	mov	r12, #63	; 0x3f
    13b8:	eaffff77 	b	119c <_malloc_r+0x58>
    13bc:	e0843003 	add	r3, r4, r3
    13c0:	e5932004 	ldr	r2, [r3, #4]
    13c4:	e3822001 	orr	r2, r2, #1
    13c8:	e1a00005 	mov	r0, r5
    13cc:	e5832004 	str	r2, [r3, #4]
    13d0:	e2844008 	add	r4, r4, #8
    13d4:	eb000254 	bl	1d2c <__malloc_unlock>
    13d8:	e1a00004 	mov	r0, r4
    13dc:	e8bd4ff8 	pop	{r3, r4, r5, r6, r7, r8, r9, r10, r11, lr}
    13e0:	e12fff1e 	bx	lr
    13e4:	e5974008 	ldr	r4, [r7, #8]
    13e8:	e5943004 	ldr	r3, [r4, #4]
    13ec:	e3c39003 	bic	r9, r3, #3
    13f0:	e0493006 	sub	r3, r9, r6
    13f4:	e353000f 	cmp	r3, #15
    13f8:	c3a02000 	movgt	r2, #0
    13fc:	d3a02001 	movle	r2, #1
    1400:	e1590006 	cmp	r9, r6
    1404:	33822001 	orrcc	r2, r2, #1
    1408:	e3520000 	cmp	r2, #0
    140c:	0a000022 	beq	149c <_malloc_r+0x358>
    1410:	e59f8474 	ldr	r8, [pc, #1140]	; 188c <_malloc_r+0x748>
    1414:	e5973408 	ldr	r3, [r7, #1032]	; 0x408
    1418:	e5982000 	ldr	r2, [r8]
    141c:	e3730001 	cmn	r3, #1
    1420:	e0862002 	add	r2, r6, r2
    1424:	12823a01 	addne	r3, r2, #4096	; 0x1000
    1428:	1283300f 	addne	r3, r3, #15
    142c:	13c3aeff 	bicne	r10, r3, #4080	; 0xff0
    1430:	0282a010 	addeq	r10, r2, #16
    1434:	13caa00f 	bicne	r10, r10, #15
    1438:	e1a0100a 	mov	r1, r10
    143c:	e1a00005 	mov	r0, r5
    1440:	eb00037a 	bl	2230 <_sbrk_r>
    1444:	e3700001 	cmn	r0, #1
    1448:	e1a0b000 	mov	r11, r0
    144c:	0a000003 	beq	1460 <_malloc_r+0x31c>
    1450:	e0843009 	add	r3, r4, r9
    1454:	e1540007 	cmp	r4, r7
    1458:	11530000 	cmpne	r3, r0
    145c:	9a000083 	bls	1670 <_malloc_r+0x52c>
    1460:	e5974008 	ldr	r4, [r7, #8]
    1464:	e5943004 	ldr	r3, [r4, #4]
    1468:	e3c33003 	bic	r3, r3, #3
    146c:	e1560003 	cmp	r6, r3
    1470:	93a02000 	movls	r2, #0
    1474:	83a02001 	movhi	r2, #1
    1478:	e0433006 	sub	r3, r3, r6
    147c:	e353000f 	cmp	r3, #15
    1480:	d3822001 	orrle	r2, r2, #1
    1484:	e3520000 	cmp	r2, #0
    1488:	0a000003 	beq	149c <_malloc_r+0x358>
    148c:	e1a00005 	mov	r0, r5
    1490:	eb000225 	bl	1d2c <__malloc_unlock>
    1494:	e3a04000 	mov	r4, #0
    1498:	eaffffba 	b	1388 <_malloc_r+0x244>
    149c:	e3833001 	orr	r3, r3, #1
    14a0:	e3862001 	orr	r2, r6, #1
    14a4:	e0846006 	add	r6, r4, r6
    14a8:	e5842004 	str	r2, [r4, #4]
    14ac:	e1a00005 	mov	r0, r5
    14b0:	e5876008 	str	r6, [r7, #8]
    14b4:	e2844008 	add	r4, r4, #8
    14b8:	e5863004 	str	r3, [r6, #4]
    14bc:	eb00021a 	bl	1d2c <__malloc_unlock>
    14c0:	e1a00004 	mov	r0, r4
    14c4:	e8bd4ff8 	pop	{r3, r4, r5, r6, r7, r8, r9, r10, r11, lr}
    14c8:	e12fff1e 	bx	lr
    14cc:	e3530014 	cmp	r3, #20
    14d0:	9a000044 	bls	15e8 <_malloc_r+0x4a4>
    14d4:	e3530054 	cmp	r3, #84	; 0x54
    14d8:	8a0000a5 	bhi	1774 <_malloc_r+0x630>
    14dc:	e1a03626 	lsr	r3, r6, #12
    14e0:	e283006f 	add	r0, r3, #111	; 0x6f
    14e4:	e283c06e 	add	r12, r3, #110	; 0x6e
    14e8:	e1a01180 	lsl	r1, r0, #3
    14ec:	eaffff2a 	b	119c <_malloc_r+0x58>
    14f0:	e1a024a3 	lsr	r2, r3, #9
    14f4:	e3520004 	cmp	r2, #4
    14f8:	9a00003e 	bls	15f8 <_malloc_r+0x4b4>
    14fc:	e3520014 	cmp	r2, #20
    1500:	8a0000b1 	bhi	17cc <_malloc_r+0x688>
    1504:	e282805c 	add	r8, r2, #92	; 0x5c
    1508:	e1a08188 	lsl	r8, r8, #3
    150c:	e282105b 	add	r1, r2, #91	; 0x5b
    1510:	e087e008 	add	lr, r7, r8
    1514:	e7972008 	ldr	r2, [r7, r8]
    1518:	e24ee008 	sub	lr, lr, #8
    151c:	e15e0002 	cmp	lr, r2
    1520:	0a00009a 	beq	1790 <_malloc_r+0x64c>
    1524:	e5921004 	ldr	r1, [r2, #4]
    1528:	e3c11003 	bic	r1, r1, #3
    152c:	e1530001 	cmp	r3, r1
    1530:	2a00008d 	bcs	176c <_malloc_r+0x628>
    1534:	e5922008 	ldr	r2, [r2, #8]
    1538:	e15e0002 	cmp	lr, r2
    153c:	1afffff8 	bne	1524 <_malloc_r+0x3e0>
    1540:	e59e200c 	ldr	r2, [lr, #12]
    1544:	e5973004 	ldr	r3, [r7, #4]
    1548:	e584200c 	str	r2, [r4, #12]
    154c:	e584e008 	str	lr, [r4, #8]
    1550:	e5824008 	str	r4, [r2, #8]
    1554:	e58e400c 	str	r4, [lr, #12]
    1558:	eaffff3f 	b	125c <_malloc_r+0x118>
    155c:	e386e001 	orr	lr, r6, #1
    1560:	e3821001 	orr	r1, r2, #1
    1564:	e0846006 	add	r6, r4, r6
    1568:	e584e004 	str	lr, [r4, #4]
    156c:	e1a00005 	mov	r0, r5
    1570:	e5876014 	str	r6, [r7, #20]
    1574:	e5876010 	str	r6, [r7, #16]
    1578:	e586c00c 	str	r12, [r6, #12]
    157c:	e9861002 	stmib	r6, {r1, r12}
    1580:	e7842003 	str	r2, [r4, r3]
    1584:	eb0001e8 	bl	1d2c <__malloc_unlock>
    1588:	e2844008 	add	r4, r4, #8
    158c:	eaffff7d 	b	1388 <_malloc_r+0x244>
    1590:	e2844001 	add	r4, r4, #1
    1594:	e3140003 	tst	r4, #3
    1598:	e2811008 	add	r1, r1, #8
    159c:	1affff41 	bne	12a8 <_malloc_r+0x164>
    15a0:	ea00001d 	b	161c <_malloc_r+0x4d8>
    15a4:	e593400c 	ldr	r4, [r3, #12]
    15a8:	e1530004 	cmp	r3, r4
    15ac:	02800002 	addeq	r0, r0, #2
    15b0:	0affff0b 	beq	11e4 <_malloc_r+0xa0>
    15b4:	eaffff66 	b	1354 <_malloc_r+0x210>
    15b8:	e1a04008 	mov	r4, r8
    15bc:	e0883003 	add	r3, r8, r3
    15c0:	e5932004 	ldr	r2, [r3, #4]
    15c4:	e598100c 	ldr	r1, [r8, #12]
    15c8:	e5b4c008 	ldr	r12, [r4, #8]!
    15cc:	e3822001 	orr	r2, r2, #1
    15d0:	e5832004 	str	r2, [r3, #4]
    15d4:	e1a00005 	mov	r0, r5
    15d8:	e58c100c 	str	r1, [r12, #12]
    15dc:	e581c008 	str	r12, [r1, #8]
    15e0:	eb0001d1 	bl	1d2c <__malloc_unlock>
    15e4:	eaffff67 	b	1388 <_malloc_r+0x244>
    15e8:	e283005c 	add	r0, r3, #92	; 0x5c
    15ec:	e283c05b 	add	r12, r3, #91	; 0x5b
    15f0:	e1a01180 	lsl	r1, r0, #3
    15f4:	eafffee8 	b	119c <_malloc_r+0x58>
    15f8:	e1a02323 	lsr	r2, r3, #6
    15fc:	e2828039 	add	r8, r2, #57	; 0x39
    1600:	e1a08188 	lsl	r8, r8, #3
    1604:	e2821038 	add	r1, r2, #56	; 0x38
    1608:	eaffffc0 	b	1510 <_malloc_r+0x3cc>
    160c:	e4193008 	ldr	r3, [r9], #-8
    1610:	e1590003 	cmp	r9, r3
    1614:	e2400001 	sub	r0, r0, #1
    1618:	1a000094 	bne	1870 <_malloc_r+0x72c>
    161c:	e3100003 	tst	r0, #3
    1620:	1afffff9 	bne	160c <_malloc_r+0x4c8>
    1624:	e5973004 	ldr	r3, [r7, #4]
    1628:	e1c3300e 	bic	r3, r3, lr
    162c:	e5873004 	str	r3, [r7, #4]
    1630:	e1b0e08e 	lsls	lr, lr, #1
    1634:	13a02001 	movne	r2, #1
    1638:	03a02000 	moveq	r2, #0
    163c:	e15e0003 	cmp	lr, r3
    1640:	83a02000 	movhi	r2, #0
    1644:	92022001 	andls	r2, r2, #1
    1648:	e3520000 	cmp	r2, #0
    164c:	0affff64 	beq	13e4 <_malloc_r+0x2a0>
    1650:	e11e0003 	tst	lr, r3
    1654:	e1a00004 	mov	r0, r4
    1658:	1affff0f 	bne	129c <_malloc_r+0x158>
    165c:	e1a0e08e 	lsl	lr, lr, #1
    1660:	e11e0003 	tst	lr, r3
    1664:	e2800004 	add	r0, r0, #4
    1668:	0afffffb 	beq	165c <_malloc_r+0x518>
    166c:	eaffff0a 	b	129c <_malloc_r+0x158>
    1670:	e5981004 	ldr	r1, [r8, #4]
    1674:	e1530000 	cmp	r3, r0
    1678:	e08a1001 	add	r1, r10, r1
    167c:	e5881004 	str	r1, [r8, #4]
    1680:	0a00005c 	beq	17f8 <_malloc_r+0x6b4>
    1684:	e5972408 	ldr	r2, [r7, #1032]	; 0x408
    1688:	e3720001 	cmn	r2, #1
    168c:	104b3003 	subne	r3, r11, r3
    1690:	10831001 	addne	r1, r3, r1
    1694:	0587b408 	streq	r11, [r7, #1032]	; 0x408
    1698:	15881004 	strne	r1, [r8, #4]
    169c:	e21b1007 	ands	r1, r11, #7
    16a0:	03a01a01 	moveq	r1, #4096	; 0x1000
    16a4:	12613008 	rsbne	r3, r1, #8
    16a8:	108bb003 	addne	r11, r11, r3
    16ac:	e08b200a 	add	r2, r11, r10
    16b0:	12611a01 	rsbne	r1, r1, #4096	; 0x1000
    16b4:	e1a02a02 	lsl	r2, r2, #20
    16b8:	12811008 	addne	r1, r1, #8
    16bc:	e1a02a22 	lsr	r2, r2, #20
    16c0:	e041a002 	sub	r10, r1, r2
    16c4:	e1a0100a 	mov	r1, r10
    16c8:	e1a00005 	mov	r0, r5
    16cc:	eb0002d7 	bl	2230 <_sbrk_r>
    16d0:	e3700001 	cmn	r0, #1
    16d4:	03a0a000 	moveq	r10, #0
    16d8:	03a03001 	moveq	r3, #1
    16dc:	1040300b 	subne	r3, r0, r11
    16e0:	e5981004 	ldr	r1, [r8, #4]
    16e4:	1083300a 	addne	r3, r3, r10
    16e8:	13833001 	orrne	r3, r3, #1
    16ec:	e08a1001 	add	r1, r10, r1
    16f0:	e1540007 	cmp	r4, r7
    16f4:	e587b008 	str	r11, [r7, #8]
    16f8:	e5881004 	str	r1, [r8, #4]
    16fc:	e58b3004 	str	r3, [r11, #4]
    1700:	0a00000f 	beq	1744 <_malloc_r+0x600>
    1704:	e359000f 	cmp	r9, #15
    1708:	93a03001 	movls	r3, #1
    170c:	958b3004 	strls	r3, [r11, #4]
    1710:	9affff5d 	bls	148c <_malloc_r+0x348>
    1714:	e3a00005 	mov	r0, #5
    1718:	e5942004 	ldr	r2, [r4, #4]
    171c:	e249300c 	sub	r3, r9, #12
    1720:	e3c33007 	bic	r3, r3, #7
    1724:	e2022001 	and	r2, r2, #1
    1728:	e1822003 	orr	r2, r2, r3
    172c:	e353000f 	cmp	r3, #15
    1730:	e0843003 	add	r3, r4, r3
    1734:	e5842004 	str	r2, [r4, #4]
    1738:	e5830004 	str	r0, [r3, #4]
    173c:	e5830008 	str	r0, [r3, #8]
    1740:	8a000035 	bhi	181c <_malloc_r+0x6d8>
    1744:	e598302c 	ldr	r3, [r8, #44]	; 0x2c
    1748:	e5974008 	ldr	r4, [r7, #8]
    174c:	e1510003 	cmp	r1, r3
    1750:	e5983030 	ldr	r3, [r8, #48]	; 0x30
    1754:	8588102c 	strhi	r1, [r8, #44]	; 0x2c
    1758:	e1510003 	cmp	r1, r3
    175c:	e5943004 	ldr	r3, [r4, #4]
    1760:	85881030 	strhi	r1, [r8, #48]	; 0x30
    1764:	e3c33003 	bic	r3, r3, #3
    1768:	eaffff3f 	b	146c <_malloc_r+0x328>
    176c:	e1a0e002 	mov	lr, r2
    1770:	eaffff72 	b	1540 <_malloc_r+0x3fc>
    1774:	e3530f55 	cmp	r3, #340	; 0x154
    1778:	8a00000b 	bhi	17ac <_malloc_r+0x668>
    177c:	e1a037a6 	lsr	r3, r6, #15
    1780:	e2830078 	add	r0, r3, #120	; 0x78
    1784:	e283c077 	add	r12, r3, #119	; 0x77
    1788:	e1a01180 	lsl	r1, r0, #3
    178c:	eafffe82 	b	119c <_malloc_r+0x58>
    1790:	e3a08001 	mov	r8, #1
    1794:	e5973004 	ldr	r3, [r7, #4]
    1798:	e1a02141 	asr	r2, r1, #2
    179c:	e1833218 	orr	r3, r3, r8, lsl r2
    17a0:	e5873004 	str	r3, [r7, #4]
    17a4:	e1a0200e 	mov	r2, lr
    17a8:	eaffff66 	b	1548 <_malloc_r+0x404>
    17ac:	e59f20dc 	ldr	r2, [pc, #220]	; 1890 <_malloc_r+0x74c>
    17b0:	e1530002 	cmp	r3, r2
    17b4:	8a00000b 	bhi	17e8 <_malloc_r+0x6a4>
    17b8:	e1a03926 	lsr	r3, r6, #18
    17bc:	e283007d 	add	r0, r3, #125	; 0x7d
    17c0:	e283c07c 	add	r12, r3, #124	; 0x7c
    17c4:	e1a01180 	lsl	r1, r0, #3
    17c8:	eafffe73 	b	119c <_malloc_r+0x58>
    17cc:	e3520054 	cmp	r2, #84	; 0x54
    17d0:	8a000016 	bhi	1830 <_malloc_r+0x6ec>
    17d4:	e1a02623 	lsr	r2, r3, #12
    17d8:	e282806f 	add	r8, r2, #111	; 0x6f
    17dc:	e1a08188 	lsl	r8, r8, #3
    17e0:	e282106e 	add	r1, r2, #110	; 0x6e
    17e4:	eaffff49 	b	1510 <_malloc_r+0x3cc>
    17e8:	e3a01ffe 	mov	r1, #1016	; 0x3f8
    17ec:	e3a0007f 	mov	r0, #127	; 0x7f
    17f0:	e3a0c07e 	mov	r12, #126	; 0x7e
    17f4:	eafffe68 	b	119c <_malloc_r+0x58>
    17f8:	e1a02a03 	lsl	r2, r3, #20
    17fc:	e1a02a22 	lsr	r2, r2, #20
    1800:	e3520000 	cmp	r2, #0
    1804:	1affff9e 	bne	1684 <_malloc_r+0x540>
    1808:	e089300a 	add	r3, r9, r10
    180c:	e5972008 	ldr	r2, [r7, #8]
    1810:	e3833001 	orr	r3, r3, #1
    1814:	e5823004 	str	r3, [r2, #4]
    1818:	eaffffc9 	b	1744 <_malloc_r+0x600>
    181c:	e2841008 	add	r1, r4, #8
    1820:	e1a00005 	mov	r0, r5
    1824:	eb0004a4 	bl	2abc <_free_r>
    1828:	e5981004 	ldr	r1, [r8, #4]
    182c:	eaffffc4 	b	1744 <_malloc_r+0x600>
    1830:	e3520f55 	cmp	r2, #340	; 0x154
    1834:	8a000004 	bhi	184c <_malloc_r+0x708>
    1838:	e1a027a3 	lsr	r2, r3, #15
    183c:	e2828078 	add	r8, r2, #120	; 0x78
    1840:	e1a08188 	lsl	r8, r8, #3
    1844:	e2821077 	add	r1, r2, #119	; 0x77
    1848:	eaffff30 	b	1510 <_malloc_r+0x3cc>
    184c:	e59f103c 	ldr	r1, [pc, #60]	; 1890 <_malloc_r+0x74c>
    1850:	e1520001 	cmp	r2, r1
    1854:	91a02923 	lsrls	r2, r3, #18
    1858:	9282807d 	addls	r8, r2, #125	; 0x7d
    185c:	91a08188 	lslls	r8, r8, #3
    1860:	9282107c 	addls	r1, r2, #124	; 0x7c
    1864:	83a08ffe 	movhi	r8, #1016	; 0x3f8
    1868:	83a0107e 	movhi	r1, #126	; 0x7e
    186c:	eaffff27 	b	1510 <_malloc_r+0x3cc>
    1870:	e5973004 	ldr	r3, [r7, #4]
    1874:	eaffff6d 	b	1630 <_malloc_r+0x4ec>
    1878:	e1a001a6 	lsr	r0, r6, #3
    187c:	e2863008 	add	r3, r6, #8
    1880:	eafffead 	b	133c <_malloc_r+0x1f8>
    1884:	00003ff0 	.word	0x00003ff0
    1888:	00003ff8 	.word	0x00003ff8
    188c:	00004430 	.word	0x00004430
    1890:	00000554 	.word	0x00000554

00001894 <memchr>:
    1894:	e3100003 	tst	r0, #3
    1898:	e92d4070 	push	{r4, r5, r6, lr}
    189c:	e201e0ff 	and	lr, r1, #255	; 0xff
    18a0:	0a000038 	beq	1988 <memchr+0xf4>
    18a4:	e3520000 	cmp	r2, #0
    18a8:	e242c001 	sub	r12, r2, #1
    18ac:	0a00001e 	beq	192c <memchr+0x98>
    18b0:	e5d03000 	ldrb	r3, [r0]
    18b4:	e153000e 	cmp	r3, lr
    18b8:	0a00001c 	beq	1930 <memchr+0x9c>
    18bc:	e2803001 	add	r3, r0, #1
    18c0:	ea000005 	b	18dc <memchr+0x48>
    18c4:	e25cc001 	subs	r12, r12, #1
    18c8:	3a000017 	bcc	192c <memchr+0x98>
    18cc:	e5d02000 	ldrb	r2, [r0]
    18d0:	e152000e 	cmp	r2, lr
    18d4:	e2833001 	add	r3, r3, #1
    18d8:	0a000014 	beq	1930 <memchr+0x9c>
    18dc:	e3130003 	tst	r3, #3
    18e0:	e1a00003 	mov	r0, r3
    18e4:	1afffff6 	bne	18c4 <memchr+0x30>
    18e8:	e35c0003 	cmp	r12, #3
    18ec:	8a000011 	bhi	1938 <memchr+0xa4>
    18f0:	e35c0000 	cmp	r12, #0
    18f4:	0a000025 	beq	1990 <memchr+0xfc>
    18f8:	e5d03000 	ldrb	r3, [r0]
    18fc:	e153000e 	cmp	r3, lr
    1900:	0a00000a 	beq	1930 <memchr+0x9c>
    1904:	e080c00c 	add	r12, r0, r12
    1908:	e2803001 	add	r3, r0, #1
    190c:	ea000003 	b	1920 <memchr+0x8c>
    1910:	e5d02000 	ldrb	r2, [r0]
    1914:	e152000e 	cmp	r2, lr
    1918:	e2833001 	add	r3, r3, #1
    191c:	0a000003 	beq	1930 <memchr+0x9c>
    1920:	e15c0003 	cmp	r12, r3
    1924:	e1a00003 	mov	r0, r3
    1928:	1afffff8 	bne	1910 <memchr+0x7c>
    192c:	e3a00000 	mov	r0, #0
    1930:	e8bd4070 	pop	{r4, r5, r6, lr}
    1934:	e12fff1e 	bx	lr
    1938:	e59f4058 	ldr	r4, [pc, #88]	; 1998 <memchr+0x104>
    193c:	e0044401 	and	r4, r4, r1, lsl #8
    1940:	e184400e 	orr	r4, r4, lr
    1944:	e59f6050 	ldr	r6, [pc, #80]	; 199c <memchr+0x108>
    1948:	e59f5050 	ldr	r5, [pc, #80]	; 19a0 <memchr+0x10c>
    194c:	e1844804 	orr	r4, r4, r4, lsl #16
    1950:	e5903000 	ldr	r3, [r0]
    1954:	e0233004 	eor	r3, r3, r4
    1958:	e0832006 	add	r2, r3, r6
    195c:	e1c23003 	bic	r3, r2, r3
    1960:	e1130005 	tst	r3, r5
    1964:	e1a01000 	mov	r1, r0
    1968:	e2800004 	add	r0, r0, #4
    196c:	1a000003 	bne	1980 <memchr+0xec>
    1970:	e24cc004 	sub	r12, r12, #4
    1974:	e35c0003 	cmp	r12, #3
    1978:	8afffff4 	bhi	1950 <memchr+0xbc>
    197c:	eaffffdb 	b	18f0 <memchr+0x5c>
    1980:	e1a00001 	mov	r0, r1
    1984:	eaffffdb 	b	18f8 <memchr+0x64>
    1988:	e1a0c002 	mov	r12, r2
    198c:	eaffffd5 	b	18e8 <memchr+0x54>
    1990:	e1a0000c 	mov	r0, r12
    1994:	eaffffe5 	b	1930 <memchr+0x9c>
    1998:	0000ffff 	.word	0x0000ffff
    199c:	fefefeff 	.word	0xfefefeff
    19a0:	80808080 	.word	0x80808080

000019a4 <memcpy>:
    19a4:	e352000f 	cmp	r2, #15
    19a8:	8a000009 	bhi	19d4 <memcpy+0x30>
    19ac:	e3520000 	cmp	r2, #0
    19b0:	e1a03000 	mov	r3, r0
    19b4:	0a00003c 	beq	1aac <memcpy+0x108>
    19b8:	e2433001 	sub	r3, r3, #1
    19bc:	e0812002 	add	r2, r1, r2
    19c0:	e4d1c001 	ldrb	r12, [r1], #1
    19c4:	e1510002 	cmp	r1, r2
    19c8:	e5e3c001 	strb	r12, [r3, #1]!
    19cc:	1afffffb 	bne	19c0 <memcpy+0x1c>
    19d0:	e12fff1e 	bx	lr
    19d4:	e1813000 	orr	r3, r1, r0
    19d8:	e3130003 	tst	r3, #3
    19dc:	1a000030 	bne	1aa4 <memcpy+0x100>
    19e0:	e92d40f0 	push	{r4, r5, r6, r7, lr}
    19e4:	e1a0e002 	mov	lr, r2
    19e8:	e280c010 	add	r12, r0, #16
    19ec:	e2813010 	add	r3, r1, #16
    19f0:	e5137010 	ldr	r7, [r3, #-16]
    19f4:	e513600c 	ldr	r6, [r3, #-12]
    19f8:	e5135008 	ldr	r5, [r3, #-8]
    19fc:	e5134004 	ldr	r4, [r3, #-4]
    1a00:	e24ee010 	sub	lr, lr, #16
    1a04:	e35e000f 	cmp	lr, #15
    1a08:	e50c7010 	str	r7, [r12, #-16]
    1a0c:	e50c600c 	str	r6, [r12, #-12]
    1a10:	e50c5008 	str	r5, [r12, #-8]
    1a14:	e50c4004 	str	r4, [r12, #-4]
    1a18:	e2833010 	add	r3, r3, #16
    1a1c:	e28cc010 	add	r12, r12, #16
    1a20:	8afffff2 	bhi	19f0 <memcpy+0x4c>
    1a24:	e2423010 	sub	r3, r2, #16
    1a28:	e3c3300f 	bic	r3, r3, #15
    1a2c:	e202600f 	and	r6, r2, #15
    1a30:	e2833010 	add	r3, r3, #16
    1a34:	e3560003 	cmp	r6, #3
    1a38:	e0811003 	add	r1, r1, r3
    1a3c:	e0803003 	add	r3, r0, r3
    1a40:	9a00001a 	bls	1ab0 <memcpy+0x10c>
    1a44:	e1a04001 	mov	r4, r1
    1a48:	e1a0c006 	mov	r12, r6
    1a4c:	e243e004 	sub	lr, r3, #4
    1a50:	e24cc004 	sub	r12, r12, #4
    1a54:	e4945004 	ldr	r5, [r4], #4
    1a58:	e35c0003 	cmp	r12, #3
    1a5c:	e5ae5004 	str	r5, [lr, #4]!
    1a60:	8afffffa 	bhi	1a50 <memcpy+0xac>
    1a64:	e246c004 	sub	r12, r6, #4
    1a68:	e3ccc003 	bic	r12, r12, #3
    1a6c:	e28cc004 	add	r12, r12, #4
    1a70:	e081100c 	add	r1, r1, r12
    1a74:	e083300c 	add	r3, r3, r12
    1a78:	e2022003 	and	r2, r2, #3
    1a7c:	e3520000 	cmp	r2, #0
    1a80:	12433001 	subne	r3, r3, #1
    1a84:	10812002 	addne	r2, r1, r2
    1a88:	0a000003 	beq	1a9c <memcpy+0xf8>
    1a8c:	e4d1c001 	ldrb	r12, [r1], #1
    1a90:	e1510002 	cmp	r1, r2
    1a94:	e5e3c001 	strb	r12, [r3, #1]!
    1a98:	1afffffb 	bne	1a8c <memcpy+0xe8>
    1a9c:	e8bd40f0 	pop	{r4, r5, r6, r7, lr}
    1aa0:	e12fff1e 	bx	lr
    1aa4:	e1a03000 	mov	r3, r0
    1aa8:	eaffffc2 	b	19b8 <memcpy+0x14>
    1aac:	e12fff1e 	bx	lr
    1ab0:	e1a02006 	mov	r2, r6
    1ab4:	eafffff0 	b	1a7c <memcpy+0xd8>

00001ab8 <memmove>:
    1ab8:	e1500001 	cmp	r0, r1
    1abc:	9a00000a 	bls	1aec <memmove+0x34>
    1ac0:	e0813002 	add	r3, r1, r2
    1ac4:	e1500003 	cmp	r0, r3
    1ac8:	2a000007 	bcs	1aec <memmove+0x34>
    1acc:	e3520000 	cmp	r2, #0
    1ad0:	e0802002 	add	r2, r0, r2
    1ad4:	012fff1e 	bxeq	lr
    1ad8:	e573c001 	ldrb	r12, [r3, #-1]!
    1adc:	e1510003 	cmp	r1, r3
    1ae0:	e562c001 	strb	r12, [r2, #-1]!
    1ae4:	1afffffb 	bne	1ad8 <memmove+0x20>
    1ae8:	e12fff1e 	bx	lr
    1aec:	e352000f 	cmp	r2, #15
    1af0:	8a000009 	bhi	1b1c <memmove+0x64>
    1af4:	e3520000 	cmp	r2, #0
    1af8:	e1a03000 	mov	r3, r0
    1afc:	0a00003c 	beq	1bf4 <memmove+0x13c>
    1b00:	e2433001 	sub	r3, r3, #1
    1b04:	e0812002 	add	r2, r1, r2
    1b08:	e4d1c001 	ldrb	r12, [r1], #1
    1b0c:	e1520001 	cmp	r2, r1
    1b10:	e5e3c001 	strb	r12, [r3, #1]!
    1b14:	1afffffb 	bne	1b08 <memmove+0x50>
    1b18:	e12fff1e 	bx	lr
    1b1c:	e1813000 	orr	r3, r1, r0
    1b20:	e3130003 	tst	r3, #3
    1b24:	1a000030 	bne	1bec <memmove+0x134>
    1b28:	e92d4070 	push	{r4, r5, r6, lr}
    1b2c:	e1a0e002 	mov	lr, r2
    1b30:	e280c010 	add	r12, r0, #16
    1b34:	e2813010 	add	r3, r1, #16
    1b38:	e5134010 	ldr	r4, [r3, #-16]
    1b3c:	e50c4010 	str	r4, [r12, #-16]
    1b40:	e513400c 	ldr	r4, [r3, #-12]
    1b44:	e50c400c 	str	r4, [r12, #-12]
    1b48:	e5134008 	ldr	r4, [r3, #-8]
    1b4c:	e50c4008 	str	r4, [r12, #-8]
    1b50:	e24ee010 	sub	lr, lr, #16
    1b54:	e5134004 	ldr	r4, [r3, #-4]
    1b58:	e35e000f 	cmp	lr, #15
    1b5c:	e50c4004 	str	r4, [r12, #-4]
    1b60:	e2833010 	add	r3, r3, #16
    1b64:	e28cc010 	add	r12, r12, #16
    1b68:	8afffff2 	bhi	1b38 <memmove+0x80>
    1b6c:	e2423010 	sub	r3, r2, #16
    1b70:	e3c3300f 	bic	r3, r3, #15
    1b74:	e202600f 	and	r6, r2, #15
    1b78:	e2833010 	add	r3, r3, #16
    1b7c:	e3560003 	cmp	r6, #3
    1b80:	e0811003 	add	r1, r1, r3
    1b84:	e0803003 	add	r3, r0, r3
    1b88:	9a00001a 	bls	1bf8 <memmove+0x140>
    1b8c:	e1a04001 	mov	r4, r1
    1b90:	e1a0c006 	mov	r12, r6
    1b94:	e243e004 	sub	lr, r3, #4
    1b98:	e24cc004 	sub	r12, r12, #4
    1b9c:	e4945004 	ldr	r5, [r4], #4
    1ba0:	e35c0003 	cmp	r12, #3
    1ba4:	e5ae5004 	str	r5, [lr, #4]!
    1ba8:	8afffffa 	bhi	1b98 <memmove+0xe0>
    1bac:	e246c004 	sub	r12, r6, #4
    1bb0:	e3ccc003 	bic	r12, r12, #3
    1bb4:	e28cc004 	add	r12, r12, #4
    1bb8:	e081100c 	add	r1, r1, r12
    1bbc:	e083300c 	add	r3, r3, r12
    1bc0:	e2022003 	and	r2, r2, #3
    1bc4:	e3520000 	cmp	r2, #0
    1bc8:	12433001 	subne	r3, r3, #1
    1bcc:	10812002 	addne	r2, r1, r2
    1bd0:	0a000003 	beq	1be4 <memmove+0x12c>
    1bd4:	e4d1c001 	ldrb	r12, [r1], #1
    1bd8:	e1520001 	cmp	r2, r1
    1bdc:	e5e3c001 	strb	r12, [r3, #1]!
    1be0:	1afffffb 	bne	1bd4 <memmove+0x11c>
    1be4:	e8bd4070 	pop	{r4, r5, r6, lr}
    1be8:	e12fff1e 	bx	lr
    1bec:	e1a03000 	mov	r3, r0
    1bf0:	eaffffc2 	b	1b00 <memmove+0x48>
    1bf4:	e12fff1e 	bx	lr
    1bf8:	e1a02006 	mov	r2, r6
    1bfc:	eafffff0 	b	1bc4 <memmove+0x10c>

00001c00 <memset>:
    1c00:	e3100003 	tst	r0, #3
    1c04:	0a000040 	beq	1d0c <memset+0x10c>
    1c08:	e3520000 	cmp	r2, #0
    1c0c:	e2422001 	sub	r2, r2, #1
    1c10:	012fff1e 	bxeq	lr
    1c14:	e201c0ff 	and	r12, r1, #255	; 0xff
    1c18:	e1a03000 	mov	r3, r0
    1c1c:	ea000002 	b	1c2c <memset+0x2c>
    1c20:	e2422001 	sub	r2, r2, #1
    1c24:	e3720001 	cmn	r2, #1
    1c28:	012fff1e 	bxeq	lr
    1c2c:	e4c3c001 	strb	r12, [r3], #1
    1c30:	e3130003 	tst	r3, #3
    1c34:	1afffff9 	bne	1c20 <memset+0x20>
    1c38:	e3520003 	cmp	r2, #3
    1c3c:	9a00002a 	bls	1cec <memset+0xec>
    1c40:	e92d4010 	push	{r4, lr}
    1c44:	e201e0ff 	and	lr, r1, #255	; 0xff
    1c48:	e18ee40e 	orr	lr, lr, lr, lsl #8
    1c4c:	e352000f 	cmp	r2, #15
    1c50:	e18ee80e 	orr	lr, lr, lr, lsl #16
    1c54:	9a000010 	bls	1c9c <memset+0x9c>
    1c58:	e1a04002 	mov	r4, r2
    1c5c:	e283c010 	add	r12, r3, #16
    1c60:	e2444010 	sub	r4, r4, #16
    1c64:	e354000f 	cmp	r4, #15
    1c68:	e50ce010 	str	lr, [r12, #-16]
    1c6c:	e50ce00c 	str	lr, [r12, #-12]
    1c70:	e50ce008 	str	lr, [r12, #-8]
    1c74:	e50ce004 	str	lr, [r12, #-4]
    1c78:	e28cc010 	add	r12, r12, #16
    1c7c:	8afffff7 	bhi	1c60 <memset+0x60>
    1c80:	e242c010 	sub	r12, r2, #16
    1c84:	e3ccc00f 	bic	r12, r12, #15
    1c88:	e202200f 	and	r2, r2, #15
    1c8c:	e28cc010 	add	r12, r12, #16
    1c90:	e3520003 	cmp	r2, #3
    1c94:	e083300c 	add	r3, r3, r12
    1c98:	9a00000a 	bls	1cc8 <memset+0xc8>
    1c9c:	e1a04003 	mov	r4, r3
    1ca0:	e1a0c002 	mov	r12, r2
    1ca4:	e24cc004 	sub	r12, r12, #4
    1ca8:	e35c0003 	cmp	r12, #3
    1cac:	e484e004 	str	lr, [r4], #4
    1cb0:	8afffffb 	bhi	1ca4 <memset+0xa4>
    1cb4:	e242c004 	sub	r12, r2, #4
    1cb8:	e3ccc003 	bic	r12, r12, #3
    1cbc:	e28cc004 	add	r12, r12, #4
    1cc0:	e083300c 	add	r3, r3, r12
    1cc4:	e2022003 	and	r2, r2, #3
    1cc8:	e3520000 	cmp	r2, #0
    1ccc:	0a000004 	beq	1ce4 <memset+0xe4>
    1cd0:	e20110ff 	and	r1, r1, #255	; 0xff
    1cd4:	e0832002 	add	r2, r3, r2
    1cd8:	e4c31001 	strb	r1, [r3], #1
    1cdc:	e1520003 	cmp	r2, r3
    1ce0:	1afffffc 	bne	1cd8 <memset+0xd8>
    1ce4:	e8bd4010 	pop	{r4, lr}
    1ce8:	e12fff1e 	bx	lr
    1cec:	e3520000 	cmp	r2, #0
    1cf0:	012fff1e 	bxeq	lr
    1cf4:	e20110ff 	and	r1, r1, #255	; 0xff
    1cf8:	e0832002 	add	r2, r3, r2
    1cfc:	e4c31001 	strb	r1, [r3], #1
    1d00:	e1520003 	cmp	r2, r3
    1d04:	1afffffc 	bne	1cfc <memset+0xfc>
    1d08:	e12fff1e 	bx	lr
    1d0c:	e1a03000 	mov	r3, r0
    1d10:	eaffffc8 	b	1c38 <memset+0x38>

00001d14 <__malloc_lock>:
    1d14:	e92d4010 	push	{r4, lr}
    1d18:	e59f0008 	ldr	r0, [pc, #8]	; 1d28 <__malloc_lock+0x14>
    1d1c:	eb000571 	bl	32e8 <__generic_gxx_recursive_mutex_lock>
    1d20:	e8bd4010 	pop	{r4, lr}
    1d24:	e12fff1e 	bx	lr
    1d28:	00004464 	.word	0x00004464

00001d2c <__malloc_unlock>:
    1d2c:	e92d4010 	push	{r4, lr}
    1d30:	e59f0008 	ldr	r0, [pc, #8]	; 1d40 <__malloc_unlock+0x14>
    1d34:	eb000569 	bl	32e0 <__generic_gxx_recursive_mutex_unlock>
    1d38:	e8bd4010 	pop	{r4, lr}
    1d3c:	e12fff1e 	bx	lr
    1d40:	00004464 	.word	0x00004464

00001d44 <__init___malloc_lock_object>:
    1d44:	e92d4010 	push	{r4, lr}
    1d48:	e59f0008 	ldr	r0, [pc, #8]	; 1d58 <__init___malloc_lock_object+0x14>
    1d4c:	eb00055f 	bl	32d0 <__generic_gxx_recursive_mutex_init_function>
    1d50:	e8bd4010 	pop	{r4, lr}
    1d54:	e12fff1e 	bx	lr
    1d58:	00004464 	.word	0x00004464

00001d5c <_realloc_r>:
    1d5c:	e92d4ff0 	push	{r4, r5, r6, r7, r8, r9, r10, r11, lr}
    1d60:	e2517000 	subs	r7, r1, #0
    1d64:	e24dd00c 	sub	sp, sp, #12
    1d68:	e1a09002 	mov	r9, r2
    1d6c:	0a00007f 	beq	1f70 <_realloc_r+0x214>
    1d70:	e289400b 	add	r4, r9, #11
    1d74:	e1a08000 	mov	r8, r0
    1d78:	ebffffe5 	bl	1d14 <__malloc_lock>
    1d7c:	e3540016 	cmp	r4, #22
    1d80:	93a02010 	movls	r2, #16
    1d84:	93a03000 	movls	r3, #0
    1d88:	91a04002 	movls	r4, r2
    1d8c:	83c44007 	bichi	r4, r4, #7
    1d90:	81a03fa4 	lsrhi	r3, r4, #31
    1d94:	81a02004 	movhi	r2, r4
    1d98:	e1540009 	cmp	r4, r9
    1d9c:	33833001 	orrcc	r3, r3, #1
    1da0:	e3530000 	cmp	r3, #0
    1da4:	13a0300c 	movne	r3, #12
    1da8:	e5171004 	ldr	r1, [r7, #-4]
    1dac:	e2475008 	sub	r5, r7, #8
    1db0:	e3c16003 	bic	r6, r1, #3
    1db4:	13a09000 	movne	r9, #0
    1db8:	15883000 	strne	r3, [r8]
    1dbc:	1a00000f 	bne	1e00 <_realloc_r+0xa4>
    1dc0:	e1560002 	cmp	r6, r2
    1dc4:	ba000011 	blt	1e10 <_realloc_r+0xb4>
    1dc8:	e1a09007 	mov	r9, r7
    1dcc:	e0463004 	sub	r3, r6, r4
    1dd0:	e353000f 	cmp	r3, #15
    1dd4:	8a000056 	bhi	1f34 <_realloc_r+0x1d8>
    1dd8:	e5953004 	ldr	r3, [r5, #4]
    1ddc:	e2033001 	and	r3, r3, #1
    1de0:	e1833006 	orr	r3, r3, r6
    1de4:	e5853004 	str	r3, [r5, #4]
    1de8:	e0855006 	add	r5, r5, r6
    1dec:	e5953004 	ldr	r3, [r5, #4]
    1df0:	e3833001 	orr	r3, r3, #1
    1df4:	e5853004 	str	r3, [r5, #4]
    1df8:	e1a00008 	mov	r0, r8
    1dfc:	ebffffca 	bl	1d2c <__malloc_unlock>
    1e00:	e1a00009 	mov	r0, r9
    1e04:	e28dd00c 	add	sp, sp, #12
    1e08:	e8bd4ff0 	pop	{r4, r5, r6, r7, r8, r9, r10, r11, lr}
    1e0c:	e12fff1e 	bx	lr
    1e10:	e59fb414 	ldr	r11, [pc, #1044]	; 222c <_realloc_r+0x4d0>
    1e14:	e59b3008 	ldr	r3, [r11, #8]
    1e18:	e085c006 	add	r12, r5, r6
    1e1c:	e15c0003 	cmp	r12, r3
    1e20:	0a0000a5 	beq	20bc <_realloc_r+0x360>
    1e24:	e59c0004 	ldr	r0, [r12, #4]
    1e28:	e3c03001 	bic	r3, r0, #1
    1e2c:	e08c3003 	add	r3, r12, r3
    1e30:	e5933004 	ldr	r3, [r3, #4]
    1e34:	e3130001 	tst	r3, #1
    1e38:	0a000032 	beq	1f08 <_realloc_r+0x1ac>
    1e3c:	e3110001 	tst	r1, #1
    1e40:	0a000088 	beq	2068 <_realloc_r+0x30c>
    1e44:	e1a01009 	mov	r1, r9
    1e48:	e1a00008 	mov	r0, r8
    1e4c:	ebfffcbc 	bl	1144 <_malloc_r>
    1e50:	e2509000 	subs	r9, r0, #0
    1e54:	0affffe7 	beq	1df8 <_realloc_r+0x9c>
    1e58:	e5173004 	ldr	r3, [r7, #-4]
    1e5c:	e3c33001 	bic	r3, r3, #1
    1e60:	e0853003 	add	r3, r5, r3
    1e64:	e2492008 	sub	r2, r9, #8
    1e68:	e1520003 	cmp	r2, r3
    1e6c:	0a0000e3 	beq	2200 <_realloc_r+0x4a4>
    1e70:	e2462004 	sub	r2, r6, #4
    1e74:	e3520024 	cmp	r2, #36	; 0x24
    1e78:	8a0000dd 	bhi	21f4 <_realloc_r+0x498>
    1e7c:	e3520013 	cmp	r2, #19
    1e80:	91a03009 	movls	r3, r9
    1e84:	91a02007 	movls	r2, r7
    1e88:	9a000014 	bls	1ee0 <_realloc_r+0x184>
    1e8c:	e5973000 	ldr	r3, [r7]
    1e90:	e5893000 	str	r3, [r9]
    1e94:	e5973004 	ldr	r3, [r7, #4]
    1e98:	e352001b 	cmp	r2, #27
    1e9c:	e5893004 	str	r3, [r9, #4]
    1ea0:	92872008 	addls	r2, r7, #8
    1ea4:	92893008 	addls	r3, r9, #8
    1ea8:	9a00000c 	bls	1ee0 <_realloc_r+0x184>
    1eac:	e5973008 	ldr	r3, [r7, #8]
    1eb0:	e5893008 	str	r3, [r9, #8]
    1eb4:	e597300c 	ldr	r3, [r7, #12]
    1eb8:	e589300c 	str	r3, [r9, #12]
    1ebc:	e3520024 	cmp	r2, #36	; 0x24
    1ec0:	05973010 	ldreq	r3, [r7, #16]
    1ec4:	05893010 	streq	r3, [r9, #16]
    1ec8:	05972014 	ldreq	r2, [r7, #20]
    1ecc:	12893010 	addne	r3, r9, #16
    1ed0:	05892014 	streq	r2, [r9, #20]
    1ed4:	12872010 	addne	r2, r7, #16
    1ed8:	02893018 	addeq	r3, r9, #24
    1edc:	02872018 	addeq	r2, r7, #24
    1ee0:	e5921000 	ldr	r1, [r2]
    1ee4:	e5831000 	str	r1, [r3]
    1ee8:	e5921004 	ldr	r1, [r2, #4]
    1eec:	e5831004 	str	r1, [r3, #4]
    1ef0:	e5922008 	ldr	r2, [r2, #8]
    1ef4:	e5832008 	str	r2, [r3, #8]
    1ef8:	e1a01007 	mov	r1, r7
    1efc:	e1a00008 	mov	r0, r8
    1f00:	eb0002ed 	bl	2abc <_free_r>
    1f04:	eaffffbb 	b	1df8 <_realloc_r+0x9c>
    1f08:	e3c00003 	bic	r0, r0, #3
    1f0c:	e0863000 	add	r3, r6, r0
    1f10:	e1530002 	cmp	r3, r2
    1f14:	ba00001c 	blt	1f8c <_realloc_r+0x230>
    1f18:	e28c1008 	add	r1, r12, #8
    1f1c:	e8910006 	ldm	r1, {r1, r2}
    1f20:	e1a09007 	mov	r9, r7
    1f24:	e581200c 	str	r2, [r1, #12]
    1f28:	e1a06003 	mov	r6, r3
    1f2c:	e5821008 	str	r1, [r2, #8]
    1f30:	eaffffa5 	b	1dcc <_realloc_r+0x70>
    1f34:	e5952004 	ldr	r2, [r5, #4]
    1f38:	e2022001 	and	r2, r2, #1
    1f3c:	e0851004 	add	r1, r5, r4
    1f40:	e3833001 	orr	r3, r3, #1
    1f44:	e1822004 	orr	r2, r2, r4
    1f48:	e5852004 	str	r2, [r5, #4]
    1f4c:	e5813004 	str	r3, [r1, #4]
    1f50:	e0855006 	add	r5, r5, r6
    1f54:	e5953004 	ldr	r3, [r5, #4]
    1f58:	e3833001 	orr	r3, r3, #1
    1f5c:	e2811008 	add	r1, r1, #8
    1f60:	e5853004 	str	r3, [r5, #4]
    1f64:	e1a00008 	mov	r0, r8
    1f68:	eb0002d3 	bl	2abc <_free_r>
    1f6c:	eaffffa1 	b	1df8 <_realloc_r+0x9c>
    1f70:	e1a01002 	mov	r1, r2
    1f74:	ebfffc72 	bl	1144 <_malloc_r>
    1f78:	e1a09000 	mov	r9, r0
    1f7c:	e1a00009 	mov	r0, r9
    1f80:	e28dd00c 	add	sp, sp, #12
    1f84:	e8bd4ff0 	pop	{r4, r5, r6, r7, r8, r9, r10, r11, lr}
    1f88:	e12fff1e 	bx	lr
    1f8c:	e3110001 	tst	r1, #1
    1f90:	1affffab 	bne	1e44 <_realloc_r+0xe8>
    1f94:	e517a008 	ldr	r10, [r7, #-8]
    1f98:	e045a00a 	sub	r10, r5, r10
    1f9c:	e59a1004 	ldr	r1, [r10, #4]
    1fa0:	e3c11003 	bic	r1, r1, #3
    1fa4:	e0810000 	add	r0, r1, r0
    1fa8:	e0803006 	add	r3, r0, r6
    1fac:	e1530002 	cmp	r3, r2
    1fb0:	ba000030 	blt	2078 <_realloc_r+0x31c>
    1fb4:	e1a0900a 	mov	r9, r10
    1fb8:	e28c1008 	add	r1, r12, #8
    1fbc:	e8910006 	ldm	r1, {r1, r2}
    1fc0:	e581200c 	str	r2, [r1, #12]
    1fc4:	e5821008 	str	r1, [r2, #8]
    1fc8:	e59a100c 	ldr	r1, [r10, #12]
    1fcc:	e5b90008 	ldr	r0, [r9, #8]!
    1fd0:	e2462004 	sub	r2, r6, #4
    1fd4:	e3520024 	cmp	r2, #36	; 0x24
    1fd8:	e580100c 	str	r1, [r0, #12]
    1fdc:	e5810008 	str	r0, [r1, #8]
    1fe0:	8a00002f 	bhi	20a4 <_realloc_r+0x348>
    1fe4:	e3520013 	cmp	r2, #19
    1fe8:	91a02009 	movls	r2, r9
    1fec:	9a000014 	bls	2044 <_realloc_r+0x2e8>
    1ff0:	e5971000 	ldr	r1, [r7]
    1ff4:	e58a1008 	str	r1, [r10, #8]
    1ff8:	e5971004 	ldr	r1, [r7, #4]
    1ffc:	e352001b 	cmp	r2, #27
    2000:	e58a100c 	str	r1, [r10, #12]
    2004:	92877008 	addls	r7, r7, #8
    2008:	928a2010 	addls	r2, r10, #16
    200c:	9a00000c 	bls	2044 <_realloc_r+0x2e8>
    2010:	e5971008 	ldr	r1, [r7, #8]
    2014:	e58a1010 	str	r1, [r10, #16]
    2018:	e597100c 	ldr	r1, [r7, #12]
    201c:	e58a1014 	str	r1, [r10, #20]
    2020:	e3520024 	cmp	r2, #36	; 0x24
    2024:	05972010 	ldreq	r2, [r7, #16]
    2028:	058a2018 	streq	r2, [r10, #24]
    202c:	05972014 	ldreq	r2, [r7, #20]
    2030:	12877010 	addne	r7, r7, #16
    2034:	058a201c 	streq	r2, [r10, #28]
    2038:	128a2018 	addne	r2, r10, #24
    203c:	02877018 	addeq	r7, r7, #24
    2040:	028a2020 	addeq	r2, r10, #32
    2044:	e5971000 	ldr	r1, [r7]
    2048:	e5821000 	str	r1, [r2]
    204c:	e5971004 	ldr	r1, [r7, #4]
    2050:	e5821004 	str	r1, [r2, #4]
    2054:	e5971008 	ldr	r1, [r7, #8]
    2058:	e1a06003 	mov	r6, r3
    205c:	e1a0500a 	mov	r5, r10
    2060:	e5821008 	str	r1, [r2, #8]
    2064:	eaffff58 	b	1dcc <_realloc_r+0x70>
    2068:	e517a008 	ldr	r10, [r7, #-8]
    206c:	e045a00a 	sub	r10, r5, r10
    2070:	e59a1004 	ldr	r1, [r10, #4]
    2074:	e3c11003 	bic	r1, r1, #3
    2078:	e0863001 	add	r3, r6, r1
    207c:	e1530002 	cmp	r3, r2
    2080:	baffff6f 	blt	1e44 <_realloc_r+0xe8>
    2084:	e1a0900a 	mov	r9, r10
    2088:	e59a100c 	ldr	r1, [r10, #12]
    208c:	e5b90008 	ldr	r0, [r9, #8]!
    2090:	e2462004 	sub	r2, r6, #4
    2094:	e3520024 	cmp	r2, #36	; 0x24
    2098:	e580100c 	str	r1, [r0, #12]
    209c:	e5810008 	str	r0, [r1, #8]
    20a0:	9affffcf 	bls	1fe4 <_realloc_r+0x288>
    20a4:	e1a01007 	mov	r1, r7
    20a8:	e1a00009 	mov	r0, r9
    20ac:	e1a06003 	mov	r6, r3
    20b0:	e1a0500a 	mov	r5, r10
    20b4:	ebfffe7f 	bl	1ab8 <memmove>
    20b8:	eaffff43 	b	1dcc <_realloc_r+0x70>
    20bc:	e59c3004 	ldr	r3, [r12, #4]
    20c0:	e3c33003 	bic	r3, r3, #3
    20c4:	e0833006 	add	r3, r3, r6
    20c8:	e2840010 	add	r0, r4, #16
    20cc:	e1530000 	cmp	r3, r0
    20d0:	aa00003a 	bge	21c0 <_realloc_r+0x464>
    20d4:	e3110001 	tst	r1, #1
    20d8:	1affff59 	bne	1e44 <_realloc_r+0xe8>
    20dc:	e517a008 	ldr	r10, [r7, #-8]
    20e0:	e045a00a 	sub	r10, r5, r10
    20e4:	e59a1004 	ldr	r1, [r10, #4]
    20e8:	e3c11003 	bic	r1, r1, #3
    20ec:	e0813003 	add	r3, r1, r3
    20f0:	e1500003 	cmp	r0, r3
    20f4:	caffffdf 	bgt	2078 <_realloc_r+0x31c>
    20f8:	e1a0900a 	mov	r9, r10
    20fc:	e59a100c 	ldr	r1, [r10, #12]
    2100:	e5b90008 	ldr	r0, [r9, #8]!
    2104:	e2462004 	sub	r2, r6, #4
    2108:	e3520024 	cmp	r2, #36	; 0x24
    210c:	e580100c 	str	r1, [r0, #12]
    2110:	e5810008 	str	r0, [r1, #8]
    2114:	8a00003e 	bhi	2214 <_realloc_r+0x4b8>
    2118:	e3520013 	cmp	r2, #19
    211c:	91a02009 	movls	r2, r9
    2120:	9a000014 	bls	2178 <_realloc_r+0x41c>
    2124:	e5971000 	ldr	r1, [r7]
    2128:	e58a1008 	str	r1, [r10, #8]
    212c:	e5971004 	ldr	r1, [r7, #4]
    2130:	e352001b 	cmp	r2, #27
    2134:	e58a100c 	str	r1, [r10, #12]
    2138:	92877008 	addls	r7, r7, #8
    213c:	928a2010 	addls	r2, r10, #16
    2140:	9a00000c 	bls	2178 <_realloc_r+0x41c>
    2144:	e5971008 	ldr	r1, [r7, #8]
    2148:	e58a1010 	str	r1, [r10, #16]
    214c:	e597100c 	ldr	r1, [r7, #12]
    2150:	e58a1014 	str	r1, [r10, #20]
    2154:	e3520024 	cmp	r2, #36	; 0x24
    2158:	05972010 	ldreq	r2, [r7, #16]
    215c:	058a2018 	streq	r2, [r10, #24]
    2160:	05972014 	ldreq	r2, [r7, #20]
    2164:	12877010 	addne	r7, r7, #16
    2168:	058a201c 	streq	r2, [r10, #28]
    216c:	128a2018 	addne	r2, r10, #24
    2170:	02877018 	addeq	r7, r7, #24
    2174:	028a2020 	addeq	r2, r10, #32
    2178:	e5971000 	ldr	r1, [r7]
    217c:	e5821000 	str	r1, [r2]
    2180:	e5971004 	ldr	r1, [r7, #4]
    2184:	e5821004 	str	r1, [r2, #4]
    2188:	e5971008 	ldr	r1, [r7, #8]
    218c:	e5821008 	str	r1, [r2, #8]
    2190:	e0433004 	sub	r3, r3, r4
    2194:	e08a2004 	add	r2, r10, r4
    2198:	e3833001 	orr	r3, r3, #1
    219c:	e58b2008 	str	r2, [r11, #8]
    21a0:	e5823004 	str	r3, [r2, #4]
    21a4:	e59a3004 	ldr	r3, [r10, #4]
    21a8:	e2033001 	and	r3, r3, #1
    21ac:	e1834004 	orr	r4, r3, r4
    21b0:	e1a00008 	mov	r0, r8
    21b4:	e58a4004 	str	r4, [r10, #4]
    21b8:	ebfffedb 	bl	1d2c <__malloc_unlock>
    21bc:	eaffff0f 	b	1e00 <_realloc_r+0xa4>
    21c0:	e0433004 	sub	r3, r3, r4
    21c4:	e0855004 	add	r5, r5, r4
    21c8:	e3833001 	orr	r3, r3, #1
    21cc:	e58b5008 	str	r5, [r11, #8]
    21d0:	e5853004 	str	r3, [r5, #4]
    21d4:	e5173004 	ldr	r3, [r7, #-4]
    21d8:	e2033001 	and	r3, r3, #1
    21dc:	e1834004 	orr	r4, r3, r4
    21e0:	e1a00008 	mov	r0, r8
    21e4:	e5074004 	str	r4, [r7, #-4]
    21e8:	ebfffecf 	bl	1d2c <__malloc_unlock>
    21ec:	e1a09007 	mov	r9, r7
    21f0:	eaffff02 	b	1e00 <_realloc_r+0xa4>
    21f4:	e1a01007 	mov	r1, r7
    21f8:	ebfffe2e 	bl	1ab8 <memmove>
    21fc:	eaffff3d 	b	1ef8 <_realloc_r+0x19c>
    2200:	e5193004 	ldr	r3, [r9, #-4]
    2204:	e3c33003 	bic	r3, r3, #3
    2208:	e0866003 	add	r6, r6, r3
    220c:	e1a09007 	mov	r9, r7
    2210:	eafffeed 	b	1dcc <_realloc_r+0x70>
    2214:	e1a01007 	mov	r1, r7
    2218:	e1a00009 	mov	r0, r9
    221c:	e58d3004 	str	r3, [sp, #4]
    2220:	ebfffe24 	bl	1ab8 <memmove>
    2224:	e59d3004 	ldr	r3, [sp, #4]
    2228:	eaffffd8 	b	2190 <_realloc_r+0x434>
    222c:	00003ff0 	.word	0x00003ff0

00002230 <_sbrk_r>:
    2230:	e3a03000 	mov	r3, #0
    2234:	e92d4070 	push	{r4, r5, r6, lr}
    2238:	e59f4030 	ldr	r4, [pc, #48]	; 2270 <_sbrk_r+0x40>
    223c:	e1a05000 	mov	r5, r0
    2240:	e1a00001 	mov	r0, r1
    2244:	e5843000 	str	r3, [r4]
    2248:	eb000509 	bl	3674 <_sbrk>
    224c:	e3700001 	cmn	r0, #1
    2250:	0a000001 	beq	225c <_sbrk_r+0x2c>
    2254:	e8bd4070 	pop	{r4, r5, r6, lr}
    2258:	e12fff1e 	bx	lr
    225c:	e5943000 	ldr	r3, [r4]
    2260:	e3530000 	cmp	r3, #0
    2264:	15853000 	strne	r3, [r5]
    2268:	e8bd4070 	pop	{r4, r5, r6, lr}
    226c:	e12fff1e 	bx	lr
    2270:	00004468 	.word	0x00004468

00002274 <__sread>:
    2274:	e92d4010 	push	{r4, lr}
    2278:	e1a04001 	mov	r4, r1
    227c:	e1d110fe 	ldrsh	r1, [r1, #14]
    2280:	eb00033a 	bl	2f70 <_read_r>
    2284:	e3500000 	cmp	r0, #0
    2288:	a5943050 	ldrge	r3, [r4, #80]	; 0x50
    228c:	b1d430bc 	ldrhlt	r3, [r4, #12]
    2290:	a0833000 	addge	r3, r3, r0
    2294:	b3c33a01 	biclt	r3, r3, #4096	; 0x1000
    2298:	a5843050 	strge	r3, [r4, #80]	; 0x50
    229c:	b1c430bc 	strhlt	r3, [r4, #12]
    22a0:	e8bd4010 	pop	{r4, lr}
    22a4:	e12fff1e 	bx	lr

000022a8 <__seofread>:
    22a8:	e3a00000 	mov	r0, #0
    22ac:	e12fff1e 	bx	lr

000022b0 <__swrite>:
    22b0:	e92d41f0 	push	{r4, r5, r6, r7, r8, lr}
    22b4:	e1a04001 	mov	r4, r1
    22b8:	e1d110fc 	ldrsh	r1, [r1, #12]
    22bc:	e3110c01 	tst	r1, #256	; 0x100
    22c0:	e1a06002 	mov	r6, r2
    22c4:	e1a07003 	mov	r7, r3
    22c8:	e1a05000 	mov	r5, r0
    22cc:	0a000004 	beq	22e4 <__swrite+0x34>
    22d0:	e1d410fe 	ldrsh	r1, [r4, #14]
    22d4:	e3a03002 	mov	r3, #2
    22d8:	e3a02000 	mov	r2, #0
    22dc:	eb0002ae 	bl	2d9c <_lseek_r>
    22e0:	e1d410fc 	ldrsh	r1, [r4, #12]
    22e4:	e3c11a01 	bic	r1, r1, #4096	; 0x1000
    22e8:	e1c410bc 	strh	r1, [r4, #12]
    22ec:	e1a03007 	mov	r3, r7
    22f0:	e1a02006 	mov	r2, r6
    22f4:	e1d410fe 	ldrsh	r1, [r4, #14]
    22f8:	e1a00005 	mov	r0, r5
    22fc:	eb000012 	bl	234c <_write_r>
    2300:	e8bd41f0 	pop	{r4, r5, r6, r7, r8, lr}
    2304:	e12fff1e 	bx	lr

00002308 <__sseek>:
    2308:	e92d4010 	push	{r4, lr}
    230c:	e1a04001 	mov	r4, r1
    2310:	e1d110fe 	ldrsh	r1, [r1, #14]
    2314:	eb0002a0 	bl	2d9c <_lseek_r>
    2318:	e1d430bc 	ldrh	r3, [r4, #12]
    231c:	e3700001 	cmn	r0, #1
    2320:	03c33a01 	biceq	r3, r3, #4096	; 0x1000
    2324:	13833a01 	orrne	r3, r3, #4096	; 0x1000
    2328:	15840050 	strne	r0, [r4, #80]	; 0x50
    232c:	e1c430bc 	strh	r3, [r4, #12]
    2330:	e8bd4010 	pop	{r4, lr}
    2334:	e12fff1e 	bx	lr

00002338 <__sclose>:
    2338:	e92d4010 	push	{r4, lr}
    233c:	e1d110fe 	ldrsh	r1, [r1, #14]
    2340:	eb000069 	bl	24ec <_close_r>
    2344:	e8bd4010 	pop	{r4, lr}
    2348:	e12fff1e 	bx	lr

0000234c <_write_r>:
    234c:	e92d4070 	push	{r4, r5, r6, lr}
    2350:	e1a0e001 	mov	lr, r1
    2354:	e3a0c000 	mov	r12, #0
    2358:	e59f4030 	ldr	r4, [pc, #48]	; 2390 <_write_r+0x44>
    235c:	e1a01002 	mov	r1, r2
    2360:	e1a05000 	mov	r5, r0
    2364:	e1a02003 	mov	r2, r3
    2368:	e1a0000e 	mov	r0, lr
    236c:	e584c000 	str	r12, [r4]
    2370:	eb0004a7 	bl	3614 <_write>
    2374:	e3700001 	cmn	r0, #1
    2378:	1a000002 	bne	2388 <_write_r+0x3c>
    237c:	e5943000 	ldr	r3, [r4]
    2380:	e3530000 	cmp	r3, #0
    2384:	15853000 	strne	r3, [r5]
    2388:	e8bd4070 	pop	{r4, r5, r6, lr}
    238c:	e12fff1e 	bx	lr
    2390:	00004468 	.word	0x00004468

00002394 <__swsetup_r>:
    2394:	e92d4070 	push	{r4, r5, r6, lr}
    2398:	e1a05000 	mov	r5, r0
    239c:	e1a04001 	mov	r4, r1
    23a0:	ebfffb63 	bl	1134 <__getreent>
    23a4:	e2503000 	subs	r3, r0, #0
    23a8:	0a000002 	beq	23b8 <__swsetup_r+0x24>
    23ac:	e5933038 	ldr	r3, [r3, #56]	; 0x38
    23b0:	e3530000 	cmp	r3, #0
    23b4:	0a000034 	beq	248c <__swsetup_r+0xf8>
    23b8:	e1d420fc 	ldrsh	r2, [r4, #12]
    23bc:	e1a03802 	lsl	r3, r2, #16
    23c0:	e3130702 	tst	r3, #524288	; 0x80000
    23c4:	e1a03823 	lsr	r3, r3, #16
    23c8:	0a00000c 	beq	2400 <__swsetup_r+0x6c>
    23cc:	e5940010 	ldr	r0, [r4, #16]
    23d0:	e3500000 	cmp	r0, #0
    23d4:	0a000014 	beq	242c <__swsetup_r+0x98>
    23d8:	e2132001 	ands	r2, r3, #1
    23dc:	1a00001b 	bne	2450 <__swsetup_r+0xbc>
    23e0:	e3130002 	tst	r3, #2
    23e4:	05942014 	ldreq	r2, [r4, #20]
    23e8:	e3500000 	cmp	r0, #0
    23ec:	e5842008 	str	r2, [r4, #8]
    23f0:	13a00000 	movne	r0, #0
    23f4:	0a00001d 	beq	2470 <__swsetup_r+0xdc>
    23f8:	e8bd4070 	pop	{r4, r5, r6, lr}
    23fc:	e12fff1e 	bx	lr
    2400:	e3130010 	tst	r3, #16
    2404:	0a000032 	beq	24d4 <__swsetup_r+0x140>
    2408:	e3130004 	tst	r3, #4
    240c:	1a000020 	bne	2494 <__swsetup_r+0x100>
    2410:	e5940010 	ldr	r0, [r4, #16]
    2414:	e3822008 	orr	r2, r2, #8
    2418:	e1c420bc 	strh	r2, [r4, #12]
    241c:	e3500000 	cmp	r0, #0
    2420:	e1a02802 	lsl	r2, r2, #16
    2424:	e1a03822 	lsr	r3, r2, #16
    2428:	1affffea 	bne	23d8 <__swsetup_r+0x44>
    242c:	e2032d0a 	and	r2, r3, #640	; 0x280
    2430:	e3520c02 	cmp	r2, #512	; 0x200
    2434:	0affffe7 	beq	23d8 <__swsetup_r+0x44>
    2438:	e1a00005 	mov	r0, r5
    243c:	e1a01004 	mov	r1, r4
    2440:	eb00028f 	bl	2e84 <__smakebuf_r>
    2444:	e1d430bc 	ldrh	r3, [r4, #12]
    2448:	e5940010 	ldr	r0, [r4, #16]
    244c:	eaffffe1 	b	23d8 <__swsetup_r+0x44>
    2450:	e3a02000 	mov	r2, #0
    2454:	e5943014 	ldr	r3, [r4, #20]
    2458:	e3500000 	cmp	r0, #0
    245c:	e2633000 	rsb	r3, r3, #0
    2460:	e5843018 	str	r3, [r4, #24]
    2464:	e5842008 	str	r2, [r4, #8]
    2468:	13a00000 	movne	r0, #0
    246c:	1affffe1 	bne	23f8 <__swsetup_r+0x64>
    2470:	e1d430fc 	ldrsh	r3, [r4, #12]
    2474:	e3130080 	tst	r3, #128	; 0x80
    2478:	13833040 	orrne	r3, r3, #64	; 0x40
    247c:	11c430bc 	strhne	r3, [r4, #12]
    2480:	13e00000 	mvnne	r0, #0
    2484:	e8bd4070 	pop	{r4, r5, r6, lr}
    2488:	e12fff1e 	bx	lr
    248c:	ebfff8f6 	bl	86c <__sinit>
    2490:	eaffffc8 	b	23b8 <__swsetup_r+0x24>
    2494:	e5941030 	ldr	r1, [r4, #48]	; 0x30
    2498:	e3510000 	cmp	r1, #0
    249c:	0a000007 	beq	24c0 <__swsetup_r+0x12c>
    24a0:	e2843040 	add	r3, r4, #64	; 0x40
    24a4:	e1510003 	cmp	r1, r3
    24a8:	0a000002 	beq	24b8 <__swsetup_r+0x124>
    24ac:	e1a00005 	mov	r0, r5
    24b0:	eb000181 	bl	2abc <_free_r>
    24b4:	e1d420fc 	ldrsh	r2, [r4, #12]
    24b8:	e3a03000 	mov	r3, #0
    24bc:	e5843030 	str	r3, [r4, #48]	; 0x30
    24c0:	e3a03000 	mov	r3, #0
    24c4:	e5940010 	ldr	r0, [r4, #16]
    24c8:	e3c22024 	bic	r2, r2, #36	; 0x24
    24cc:	e8840009 	stm	r4, {r0, r3}
    24d0:	eaffffcf 	b	2414 <__swsetup_r+0x80>
    24d4:	e3a03009 	mov	r3, #9
    24d8:	e3822040 	orr	r2, r2, #64	; 0x40
    24dc:	e5853000 	str	r3, [r5]
    24e0:	e3e00000 	mvn	r0, #0
    24e4:	e1c420bc 	strh	r2, [r4, #12]
    24e8:	eaffffc2 	b	23f8 <__swsetup_r+0x64>

000024ec <_close_r>:
    24ec:	e3a03000 	mov	r3, #0
    24f0:	e92d4070 	push	{r4, r5, r6, lr}
    24f4:	e59f4028 	ldr	r4, [pc, #40]	; 2524 <_close_r+0x38>
    24f8:	e1a05000 	mov	r5, r0
    24fc:	e1a00001 	mov	r0, r1
    2500:	e5843000 	str	r3, [r4]
    2504:	eb00038f 	bl	3348 <_close>
    2508:	e3700001 	cmn	r0, #1
    250c:	1a000002 	bne	251c <_close_r+0x30>
    2510:	e5943000 	ldr	r3, [r4]
    2514:	e3530000 	cmp	r3, #0
    2518:	15853000 	strne	r3, [r5]
    251c:	e8bd4070 	pop	{r4, r5, r6, lr}
    2520:	e12fff1e 	bx	lr
    2524:	00004468 	.word	0x00004468

00002528 <_fclose_r>:
    2528:	e92d41f0 	push	{r4, r5, r6, r7, r8, lr}
    252c:	e2514000 	subs	r4, r1, #0
    2530:	0a00003b 	beq	2624 <_fclose_r+0xfc>
    2534:	e3500000 	cmp	r0, #0
    2538:	e1a06000 	mov	r6, r0
    253c:	0a000002 	beq	254c <_fclose_r+0x24>
    2540:	e5903038 	ldr	r3, [r0, #56]	; 0x38
    2544:	e3530000 	cmp	r3, #0
    2548:	0a000039 	beq	2634 <_fclose_r+0x10c>
    254c:	e5943064 	ldr	r3, [r4, #100]	; 0x64
    2550:	e3130001 	tst	r3, #1
    2554:	1a00002f 	bne	2618 <_fclose_r+0xf0>
    2558:	e1d430bc 	ldrh	r3, [r4, #12]
    255c:	e3130c02 	tst	r3, #512	; 0x200
    2560:	0a00003c 	beq	2658 <_fclose_r+0x130>
    2564:	e2847058 	add	r7, r4, #88	; 0x58
    2568:	e1a01004 	mov	r1, r4
    256c:	e1a00006 	mov	r0, r6
    2570:	eb00004c 	bl	26a8 <__sflush_r>
    2574:	e594302c 	ldr	r3, [r4, #44]	; 0x2c
    2578:	e3530000 	cmp	r3, #0
    257c:	e1a05000 	mov	r5, r0
    2580:	0a000005 	beq	259c <_fclose_r+0x74>
    2584:	e594101c 	ldr	r1, [r4, #28]
    2588:	e1a00006 	mov	r0, r6
    258c:	e1a0e00f 	mov	lr, pc
    2590:	e12fff13 	bx	r3
    2594:	e3500000 	cmp	r0, #0
    2598:	b3e05000 	mvnlt	r5, #0
    259c:	e1d430bc 	ldrh	r3, [r4, #12]
    25a0:	e3130080 	tst	r3, #128	; 0x80
    25a4:	1a000024 	bne	263c <_fclose_r+0x114>
    25a8:	e5941030 	ldr	r1, [r4, #48]	; 0x30
    25ac:	e3510000 	cmp	r1, #0
    25b0:	0a000005 	beq	25cc <_fclose_r+0xa4>
    25b4:	e2843040 	add	r3, r4, #64	; 0x40
    25b8:	e1510003 	cmp	r1, r3
    25bc:	11a00006 	movne	r0, r6
    25c0:	1b00013d 	blne	2abc <_free_r>
    25c4:	e3a03000 	mov	r3, #0
    25c8:	e5843030 	str	r3, [r4, #48]	; 0x30
    25cc:	e5941044 	ldr	r1, [r4, #68]	; 0x44
    25d0:	e3510000 	cmp	r1, #0
    25d4:	0a000003 	beq	25e8 <_fclose_r+0xc0>
    25d8:	e1a00006 	mov	r0, r6
    25dc:	eb000136 	bl	2abc <_free_r>
    25e0:	e3a03000 	mov	r3, #0
    25e4:	e5843044 	str	r3, [r4, #68]	; 0x44
    25e8:	ebfff90c 	bl	a20 <__sfp_lock_acquire>
    25ec:	e3a03000 	mov	r3, #0
    25f0:	e5942064 	ldr	r2, [r4, #100]	; 0x64
    25f4:	e3120001 	tst	r2, #1
    25f8:	e1c430bc 	strh	r3, [r4, #12]
    25fc:	0a000012 	beq	264c <_fclose_r+0x124>
    2600:	e1a00007 	mov	r0, r7
    2604:	eb000333 	bl	32d8 <__generic_gxx_recursive_mutex_destroy>
    2608:	ebfff90a 	bl	a38 <__sfp_lock_release>
    260c:	e1a00005 	mov	r0, r5
    2610:	e8bd41f0 	pop	{r4, r5, r6, r7, r8, lr}
    2614:	e12fff1e 	bx	lr
    2618:	e1d430fc 	ldrsh	r3, [r4, #12]
    261c:	e3530000 	cmp	r3, #0
    2620:	1affffcf 	bne	2564 <_fclose_r+0x3c>
    2624:	e3a05000 	mov	r5, #0
    2628:	e1a00005 	mov	r0, r5
    262c:	e8bd41f0 	pop	{r4, r5, r6, r7, r8, lr}
    2630:	e12fff1e 	bx	lr
    2634:	ebfff88c 	bl	86c <__sinit>
    2638:	eaffffc3 	b	254c <_fclose_r+0x24>
    263c:	e5941010 	ldr	r1, [r4, #16]
    2640:	e1a00006 	mov	r0, r6
    2644:	eb00011c 	bl	2abc <_free_r>
    2648:	eaffffd6 	b	25a8 <_fclose_r+0x80>
    264c:	e1a00007 	mov	r0, r7
    2650:	eb000322 	bl	32e0 <__generic_gxx_recursive_mutex_unlock>
    2654:	eaffffe9 	b	2600 <_fclose_r+0xd8>
    2658:	e2847058 	add	r7, r4, #88	; 0x58
    265c:	e1a00007 	mov	r0, r7
    2660:	eb000320 	bl	32e8 <__generic_gxx_recursive_mutex_lock>
    2664:	e1d430fc 	ldrsh	r3, [r4, #12]
    2668:	e3530000 	cmp	r3, #0
    266c:	1affffbd 	bne	2568 <_fclose_r+0x40>
    2670:	e5945064 	ldr	r5, [r4, #100]	; 0x64
    2674:	e2155001 	ands	r5, r5, #1
    2678:	1affffe9 	bne	2624 <_fclose_r+0xfc>
    267c:	e1a00007 	mov	r0, r7
    2680:	eb000316 	bl	32e0 <__generic_gxx_recursive_mutex_unlock>
    2684:	e1a00005 	mov	r0, r5
    2688:	e8bd41f0 	pop	{r4, r5, r6, r7, r8, lr}
    268c:	e12fff1e 	bx	lr

00002690 <fclose>:
    2690:	e92d4010 	push	{r4, lr}
    2694:	e1a04000 	mov	r4, r0
    2698:	ebfffaa5 	bl	1134 <__getreent>
    269c:	e1a01004 	mov	r1, r4
    26a0:	e8bd4010 	pop	{r4, lr}
    26a4:	eaffff9f 	b	2528 <_fclose_r>

000026a8 <__sflush_r>:
    26a8:	e1d130fc 	ldrsh	r3, [r1, #12]
    26ac:	e1a02803 	lsl	r2, r3, #16
    26b0:	e3120702 	tst	r2, #524288	; 0x80000
    26b4:	e92d41f0 	push	{r4, r5, r6, r7, r8, lr}
    26b8:	e1a05001 	mov	r5, r1
    26bc:	e1a08000 	mov	r8, r0
    26c0:	1a000034 	bne	2798 <__sflush_r+0xf0>
    26c4:	e5912004 	ldr	r2, [r1, #4]
    26c8:	e3833b02 	orr	r3, r3, #2048	; 0x800
    26cc:	e3520000 	cmp	r2, #0
    26d0:	e1c130bc 	strh	r3, [r1, #12]
    26d4:	da000050 	ble	281c <__sflush_r+0x174>
    26d8:	e5954028 	ldr	r4, [r5, #40]	; 0x28
    26dc:	e3540000 	cmp	r4, #0
    26e0:	0a000050 	beq	2828 <__sflush_r+0x180>
    26e4:	e3a02000 	mov	r2, #0
    26e8:	e1a03803 	lsl	r3, r3, #16
    26ec:	e2030201 	and	r0, r3, #268435456	; 0x10000000
    26f0:	e1b07820 	lsrs	r7, r0, #16
    26f4:	e5986000 	ldr	r6, [r8]
    26f8:	e1a03823 	lsr	r3, r3, #16
    26fc:	e5882000 	str	r2, [r8]
    2700:	0a00005e 	beq	2880 <__sflush_r+0x1d8>
    2704:	e5952050 	ldr	r2, [r5, #80]	; 0x50
    2708:	e3130004 	tst	r3, #4
    270c:	0a000005 	beq	2728 <__sflush_r+0x80>
    2710:	e5951030 	ldr	r1, [r5, #48]	; 0x30
    2714:	e5953004 	ldr	r3, [r5, #4]
    2718:	e3510000 	cmp	r1, #0
    271c:	e0422003 	sub	r2, r2, r3
    2720:	1595303c 	ldrne	r3, [r5, #60]	; 0x3c
    2724:	10422003 	subne	r2, r2, r3
    2728:	e3a03000 	mov	r3, #0
    272c:	e595101c 	ldr	r1, [r5, #28]
    2730:	e1a00008 	mov	r0, r8
    2734:	e1a0e00f 	mov	lr, pc
    2738:	e12fff14 	bx	r4
    273c:	e3700001 	cmn	r0, #1
    2740:	0a00003b 	beq	2834 <__sflush_r+0x18c>
    2744:	e3a01000 	mov	r1, #0
    2748:	e1d530fc 	ldrsh	r3, [r5, #12]
    274c:	e5952010 	ldr	r2, [r5, #16]
    2750:	e3c33b02 	bic	r3, r3, #2048	; 0x800
    2754:	e3130a01 	tst	r3, #4096	; 0x1000
    2758:	e1c530bc 	strh	r3, [r5, #12]
    275c:	e5851004 	str	r1, [r5, #4]
    2760:	e5852000 	str	r2, [r5]
    2764:	1a000043 	bne	2878 <__sflush_r+0x1d0>
    2768:	e5951030 	ldr	r1, [r5, #48]	; 0x30
    276c:	e3510000 	cmp	r1, #0
    2770:	e5886000 	str	r6, [r8]
    2774:	0a00002b 	beq	2828 <__sflush_r+0x180>
    2778:	e2853040 	add	r3, r5, #64	; 0x40
    277c:	e1510003 	cmp	r1, r3
    2780:	11a00008 	movne	r0, r8
    2784:	1b0000cc 	blne	2abc <_free_r>
    2788:	e3a00000 	mov	r0, #0
    278c:	e5850030 	str	r0, [r5, #48]	; 0x30
    2790:	e8bd41f0 	pop	{r4, r5, r6, r7, r8, lr}
    2794:	e12fff1e 	bx	lr
    2798:	e5916010 	ldr	r6, [r1, #16]
    279c:	e3560000 	cmp	r6, #0
    27a0:	0a000020 	beq	2828 <__sflush_r+0x180>
    27a4:	e1a02822 	lsr	r2, r2, #16
    27a8:	e3120003 	tst	r2, #3
    27ac:	13a03000 	movne	r3, #0
    27b0:	e5914000 	ldr	r4, [r1]
    27b4:	05913014 	ldreq	r3, [r1, #20]
    27b8:	e0444006 	sub	r4, r4, r6
    27bc:	e3540000 	cmp	r4, #0
    27c0:	e5816000 	str	r6, [r1]
    27c4:	e5813008 	str	r3, [r1, #8]
    27c8:	ca000003 	bgt	27dc <__sflush_r+0x134>
    27cc:	ea000015 	b	2828 <__sflush_r+0x180>
    27d0:	e3540000 	cmp	r4, #0
    27d4:	e0866000 	add	r6, r6, r0
    27d8:	da000012 	ble	2828 <__sflush_r+0x180>
    27dc:	e1a03004 	mov	r3, r4
    27e0:	e5957024 	ldr	r7, [r5, #36]	; 0x24
    27e4:	e1a02006 	mov	r2, r6
    27e8:	e595101c 	ldr	r1, [r5, #28]
    27ec:	e1a00008 	mov	r0, r8
    27f0:	e1a0e00f 	mov	lr, pc
    27f4:	e12fff17 	bx	r7
    27f8:	e3500000 	cmp	r0, #0
    27fc:	e0444000 	sub	r4, r4, r0
    2800:	cafffff2 	bgt	27d0 <__sflush_r+0x128>
    2804:	e3e00000 	mvn	r0, #0
    2808:	e1d530bc 	ldrh	r3, [r5, #12]
    280c:	e3833040 	orr	r3, r3, #64	; 0x40
    2810:	e1c530bc 	strh	r3, [r5, #12]
    2814:	e8bd41f0 	pop	{r4, r5, r6, r7, r8, lr}
    2818:	e12fff1e 	bx	lr
    281c:	e591203c 	ldr	r2, [r1, #60]	; 0x3c
    2820:	e3520000 	cmp	r2, #0
    2824:	caffffab 	bgt	26d8 <__sflush_r+0x30>
    2828:	e3a00000 	mov	r0, #0
    282c:	e8bd41f0 	pop	{r4, r5, r6, r7, r8, lr}
    2830:	e12fff1e 	bx	lr
    2834:	e5981000 	ldr	r1, [r8]
    2838:	e351001d 	cmp	r1, #29
    283c:	8afffff0 	bhi	2804 <__sflush_r+0x15c>
    2840:	e59f3098 	ldr	r3, [pc, #152]	; 28e0 <__sflush_r+0x238>
    2844:	e1e03133 	mvn	r3, r3, lsr r1
    2848:	e2133001 	ands	r3, r3, #1
    284c:	1affffec 	bne	2804 <__sflush_r+0x15c>
    2850:	e1d520fc 	ldrsh	r2, [r5, #12]
    2854:	e595c010 	ldr	r12, [r5, #16]
    2858:	e3c22b02 	bic	r2, r2, #2048	; 0x800
    285c:	e3120a01 	tst	r2, #4096	; 0x1000
    2860:	e5853004 	str	r3, [r5, #4]
    2864:	e1c520bc 	strh	r2, [r5, #12]
    2868:	e585c000 	str	r12, [r5]
    286c:	0affffbd 	beq	2768 <__sflush_r+0xc0>
    2870:	e3510000 	cmp	r1, #0
    2874:	1affffbb 	bne	2768 <__sflush_r+0xc0>
    2878:	e5850050 	str	r0, [r5, #80]	; 0x50
    287c:	eaffffb9 	b	2768 <__sflush_r+0xc0>
    2880:	e1a02007 	mov	r2, r7
    2884:	e3a03001 	mov	r3, #1
    2888:	e595101c 	ldr	r1, [r5, #28]
    288c:	e1a00008 	mov	r0, r8
    2890:	e1a0e00f 	mov	lr, pc
    2894:	e12fff14 	bx	r4
    2898:	e3700001 	cmn	r0, #1
    289c:	e1a02000 	mov	r2, r0
    28a0:	0a000002 	beq	28b0 <__sflush_r+0x208>
    28a4:	e1d530bc 	ldrh	r3, [r5, #12]
    28a8:	e5954028 	ldr	r4, [r5, #40]	; 0x28
    28ac:	eaffff95 	b	2708 <__sflush_r+0x60>
    28b0:	e5983000 	ldr	r3, [r8]
    28b4:	e3530000 	cmp	r3, #0
    28b8:	0afffff9 	beq	28a4 <__sflush_r+0x1fc>
    28bc:	e3530016 	cmp	r3, #22
    28c0:	1353001d 	cmpne	r3, #29
    28c4:	11d530bc 	ldrhne	r3, [r5, #12]
    28c8:	13833040 	orrne	r3, r3, #64	; 0x40
    28cc:	05886000 	streq	r6, [r8]
    28d0:	01a00007 	moveq	r0, r7
    28d4:	11a00002 	movne	r0, r2
    28d8:	11c530bc 	strhne	r3, [r5, #12]
    28dc:	eaffffcc 	b	2814 <__sflush_r+0x16c>
    28e0:	20400001 	.word	0x20400001

000028e4 <_fflush_r>:
    28e4:	e92d4070 	push	{r4, r5, r6, lr}
    28e8:	e2504000 	subs	r4, r0, #0
    28ec:	e1a05001 	mov	r5, r1
    28f0:	0a000002 	beq	2900 <_fflush_r+0x1c>
    28f4:	e5943038 	ldr	r3, [r4, #56]	; 0x38
    28f8:	e3530000 	cmp	r3, #0
    28fc:	0a000015 	beq	2958 <_fflush_r+0x74>
    2900:	e1d500fc 	ldrsh	r0, [r5, #12]
    2904:	e3500000 	cmp	r0, #0
    2908:	01a04000 	moveq	r4, r0
    290c:	0a00000e 	beq	294c <_fflush_r+0x68>
    2910:	e5953064 	ldr	r3, [r5, #100]	; 0x64
    2914:	e3130001 	tst	r3, #1
    2918:	1a000001 	bne	2924 <_fflush_r+0x40>
    291c:	e3100c02 	tst	r0, #512	; 0x200
    2920:	0a000013 	beq	2974 <_fflush_r+0x90>
    2924:	e1a00004 	mov	r0, r4
    2928:	e1a01005 	mov	r1, r5
    292c:	ebffff5d 	bl	26a8 <__sflush_r>
    2930:	e5953064 	ldr	r3, [r5, #100]	; 0x64
    2934:	e3130001 	tst	r3, #1
    2938:	e1a04000 	mov	r4, r0
    293c:	1a000002 	bne	294c <_fflush_r+0x68>
    2940:	e1d530bc 	ldrh	r3, [r5, #12]
    2944:	e3130c02 	tst	r3, #512	; 0x200
    2948:	0a000004 	beq	2960 <_fflush_r+0x7c>
    294c:	e1a00004 	mov	r0, r4
    2950:	e8bd4070 	pop	{r4, r5, r6, lr}
    2954:	e12fff1e 	bx	lr
    2958:	ebfff7c3 	bl	86c <__sinit>
    295c:	eaffffe7 	b	2900 <_fflush_r+0x1c>
    2960:	e2850058 	add	r0, r5, #88	; 0x58
    2964:	eb00025d 	bl	32e0 <__generic_gxx_recursive_mutex_unlock>
    2968:	e1a00004 	mov	r0, r4
    296c:	e8bd4070 	pop	{r4, r5, r6, lr}
    2970:	e12fff1e 	bx	lr
    2974:	e2850058 	add	r0, r5, #88	; 0x58
    2978:	eb00025a 	bl	32e8 <__generic_gxx_recursive_mutex_lock>
    297c:	eaffffe8 	b	2924 <_fflush_r+0x40>

00002980 <fflush>:
    2980:	e92d4010 	push	{r4, lr}
    2984:	e2504000 	subs	r4, r0, #0
    2988:	0a000003 	beq	299c <fflush+0x1c>
    298c:	ebfff9e8 	bl	1134 <__getreent>
    2990:	e1a01004 	mov	r1, r4
    2994:	e8bd4010 	pop	{r4, lr}
    2998:	eaffffd1 	b	28e4 <_fflush_r>
    299c:	e59f3010 	ldr	r3, [pc, #16]	; 29b4 <fflush+0x34>
    29a0:	e59f1010 	ldr	r1, [pc, #16]	; 29b8 <fflush+0x38>
    29a4:	e5930000 	ldr	r0, [r3]
    29a8:	ebfff9be 	bl	10a8 <_fwalk_reent>
    29ac:	e8bd4010 	pop	{r4, lr}
    29b0:	e12fff1e 	bx	lr
    29b4:	00003b44 	.word	0x00003b44
    29b8:	000028e4 	.word	0x000028e4

000029bc <_malloc_trim_r>:
    29bc:	e92d41f0 	push	{r4, r5, r6, r7, r8, lr}
    29c0:	e1a04001 	mov	r4, r1
    29c4:	e59f70e4 	ldr	r7, [pc, #228]	; 2ab0 <_malloc_trim_r+0xf4>
    29c8:	e1a06000 	mov	r6, r0
    29cc:	ebfffcd0 	bl	1d14 <__malloc_lock>
    29d0:	e5973008 	ldr	r3, [r7, #8]
    29d4:	e5935004 	ldr	r5, [r3, #4]
    29d8:	e2641efe 	rsb	r1, r4, #4064	; 0xfe0
    29dc:	e281100f 	add	r1, r1, #15
    29e0:	e3c55003 	bic	r5, r5, #3
    29e4:	e0814005 	add	r4, r1, r5
    29e8:	e1a04624 	lsr	r4, r4, #12
    29ec:	e2444001 	sub	r4, r4, #1
    29f0:	e1a04604 	lsl	r4, r4, #12
    29f4:	e3540a01 	cmp	r4, #4096	; 0x1000
    29f8:	ba000006 	blt	2a18 <_malloc_trim_r+0x5c>
    29fc:	e3a01000 	mov	r1, #0
    2a00:	e1a00006 	mov	r0, r6
    2a04:	ebfffe09 	bl	2230 <_sbrk_r>
    2a08:	e5973008 	ldr	r3, [r7, #8]
    2a0c:	e0833005 	add	r3, r3, r5
    2a10:	e1500003 	cmp	r0, r3
    2a14:	0a000004 	beq	2a2c <_malloc_trim_r+0x70>
    2a18:	e1a00006 	mov	r0, r6
    2a1c:	ebfffcc2 	bl	1d2c <__malloc_unlock>
    2a20:	e3a00000 	mov	r0, #0
    2a24:	e8bd41f0 	pop	{r4, r5, r6, r7, r8, lr}
    2a28:	e12fff1e 	bx	lr
    2a2c:	e2641000 	rsb	r1, r4, #0
    2a30:	e1a00006 	mov	r0, r6
    2a34:	ebfffdfd 	bl	2230 <_sbrk_r>
    2a38:	e3700001 	cmn	r0, #1
    2a3c:	0a00000c 	beq	2a74 <_malloc_trim_r+0xb8>
    2a40:	e59f206c 	ldr	r2, [pc, #108]	; 2ab4 <_malloc_trim_r+0xf8>
    2a44:	e5971008 	ldr	r1, [r7, #8]
    2a48:	e5923000 	ldr	r3, [r2]
    2a4c:	e0455004 	sub	r5, r5, r4
    2a50:	e3855001 	orr	r5, r5, #1
    2a54:	e1a00006 	mov	r0, r6
    2a58:	e0434004 	sub	r4, r3, r4
    2a5c:	e5815004 	str	r5, [r1, #4]
    2a60:	e5824000 	str	r4, [r2]
    2a64:	ebfffcb0 	bl	1d2c <__malloc_unlock>
    2a68:	e3a00001 	mov	r0, #1
    2a6c:	e8bd41f0 	pop	{r4, r5, r6, r7, r8, lr}
    2a70:	e12fff1e 	bx	lr
    2a74:	e3a01000 	mov	r1, #0
    2a78:	e1a00006 	mov	r0, r6
    2a7c:	ebfffdeb 	bl	2230 <_sbrk_r>
    2a80:	e5972008 	ldr	r2, [r7, #8]
    2a84:	e0403002 	sub	r3, r0, r2
    2a88:	e353000f 	cmp	r3, #15
    2a8c:	daffffe1 	ble	2a18 <_malloc_trim_r+0x5c>
    2a90:	e59f1020 	ldr	r1, [pc, #32]	; 2ab8 <_malloc_trim_r+0xfc>
    2a94:	e591c000 	ldr	r12, [r1]
    2a98:	e59f1014 	ldr	r1, [pc, #20]	; 2ab4 <_malloc_trim_r+0xf8>
    2a9c:	e3833001 	orr	r3, r3, #1
    2aa0:	e040000c 	sub	r0, r0, r12
    2aa4:	e5823004 	str	r3, [r2, #4]
    2aa8:	e5810000 	str	r0, [r1]
    2aac:	eaffffd9 	b	2a18 <_malloc_trim_r+0x5c>
    2ab0:	00003ff0 	.word	0x00003ff0
    2ab4:	00004434 	.word	0x00004434
    2ab8:	000043f8 	.word	0x000043f8

00002abc <_free_r>:
    2abc:	e92d4070 	push	{r4, r5, r6, lr}
    2ac0:	e2514000 	subs	r4, r1, #0
    2ac4:	0a000031 	beq	2b90 <_free_r+0xd4>
    2ac8:	e1a05000 	mov	r5, r0
    2acc:	ebfffc90 	bl	1d14 <__malloc_lock>
    2ad0:	e5141004 	ldr	r1, [r4, #-4]
    2ad4:	e59fe2ac 	ldr	lr, [pc, #684]	; 2d88 <_free_r+0x2cc>
    2ad8:	e3c13001 	bic	r3, r1, #1
    2adc:	e244c008 	sub	r12, r4, #8
    2ae0:	e08c0003 	add	r0, r12, r3
    2ae4:	e59e6008 	ldr	r6, [lr, #8]
    2ae8:	e5902004 	ldr	r2, [r0, #4]
    2aec:	e1500006 	cmp	r0, r6
    2af0:	e3c22003 	bic	r2, r2, #3
    2af4:	0a00004e 	beq	2c34 <_free_r+0x178>
    2af8:	e3110001 	tst	r1, #1
    2afc:	e5802004 	str	r2, [r0, #4]
    2b00:	1a000009 	bne	2b2c <_free_r+0x70>
    2b04:	e5144008 	ldr	r4, [r4, #-8]
    2b08:	e04cc004 	sub	r12, r12, r4
    2b0c:	e59c1008 	ldr	r1, [r12, #8]
    2b10:	e28e6008 	add	r6, lr, #8
    2b14:	e1510006 	cmp	r1, r6
    2b18:	e0833004 	add	r3, r3, r4
    2b1c:	0a00005c 	beq	2c94 <_free_r+0x1d8>
    2b20:	e59c400c 	ldr	r4, [r12, #12]
    2b24:	e581400c 	str	r4, [r1, #12]
    2b28:	e5841008 	str	r1, [r4, #8]
    2b2c:	e0801002 	add	r1, r0, r2
    2b30:	e5911004 	ldr	r1, [r1, #4]
    2b34:	e3110001 	tst	r1, #1
    2b38:	13832001 	orrne	r2, r3, #1
    2b3c:	158c2004 	strne	r2, [r12, #4]
    2b40:	178c3003 	strne	r3, [r12, r3]
    2b44:	0a00002c 	beq	2bfc <_free_r+0x140>
    2b48:	e3530c02 	cmp	r3, #512	; 0x200
    2b4c:	2a000011 	bcs	2b98 <_free_r+0xdc>
    2b50:	e3a04001 	mov	r4, #1
    2b54:	e59e0004 	ldr	r0, [lr, #4]
    2b58:	e1a031a3 	lsr	r3, r3, #3
    2b5c:	e0832004 	add	r2, r3, r4
    2b60:	e1a03143 	asr	r3, r3, #2
    2b64:	e1803314 	orr	r3, r0, r4, lsl r3
    2b68:	e08e1182 	add	r1, lr, r2, lsl #3
    2b6c:	e79e0182 	ldr	r0, [lr, r2, lsl #3]
    2b70:	e2411008 	sub	r1, r1, #8
    2b74:	e58e3004 	str	r3, [lr, #4]
    2b78:	e58c100c 	str	r1, [r12, #12]
    2b7c:	e58c0008 	str	r0, [r12, #8]
    2b80:	e78ec182 	str	r12, [lr, r2, lsl #3]
    2b84:	e580c00c 	str	r12, [r0, #12]
    2b88:	e1a00005 	mov	r0, r5
    2b8c:	ebfffc66 	bl	1d2c <__malloc_unlock>
    2b90:	e8bd4070 	pop	{r4, r5, r6, lr}
    2b94:	e12fff1e 	bx	lr
    2b98:	e1a024a3 	lsr	r2, r3, #9
    2b9c:	e3520004 	cmp	r2, #4
    2ba0:	8a000048 	bhi	2cc8 <_free_r+0x20c>
    2ba4:	e1a02323 	lsr	r2, r3, #6
    2ba8:	e2824039 	add	r4, r2, #57	; 0x39
    2bac:	e1a04184 	lsl	r4, r4, #3
    2bb0:	e2821038 	add	r1, r2, #56	; 0x38
    2bb4:	e08e0004 	add	r0, lr, r4
    2bb8:	e79e2004 	ldr	r2, [lr, r4]
    2bbc:	e2400008 	sub	r0, r0, #8
    2bc0:	e1500002 	cmp	r0, r2
    2bc4:	0a000045 	beq	2ce0 <_free_r+0x224>
    2bc8:	e5921004 	ldr	r1, [r2, #4]
    2bcc:	e3c11003 	bic	r1, r1, #3
    2bd0:	e1530001 	cmp	r3, r1
    2bd4:	2a00002c 	bcs	2c8c <_free_r+0x1d0>
    2bd8:	e5922008 	ldr	r2, [r2, #8]
    2bdc:	e1500002 	cmp	r0, r2
    2be0:	1afffff8 	bne	2bc8 <_free_r+0x10c>
    2be4:	e590300c 	ldr	r3, [r0, #12]
    2be8:	e58c300c 	str	r3, [r12, #12]
    2bec:	e58c0008 	str	r0, [r12, #8]
    2bf0:	e583c008 	str	r12, [r3, #8]
    2bf4:	e580c00c 	str	r12, [r0, #12]
    2bf8:	eaffffe2 	b	2b88 <_free_r+0xcc>
    2bfc:	e5901008 	ldr	r1, [r0, #8]
    2c00:	e59f4184 	ldr	r4, [pc, #388]	; 2d8c <_free_r+0x2d0>
    2c04:	e1510004 	cmp	r1, r4
    2c08:	e0833002 	add	r3, r3, r2
    2c0c:	0a00003a 	beq	2cfc <_free_r+0x240>
    2c10:	e590000c 	ldr	r0, [r0, #12]
    2c14:	e3832001 	orr	r2, r3, #1
    2c18:	e3530c02 	cmp	r3, #512	; 0x200
    2c1c:	e581000c 	str	r0, [r1, #12]
    2c20:	e5801008 	str	r1, [r0, #8]
    2c24:	e58c2004 	str	r2, [r12, #4]
    2c28:	e78c3003 	str	r3, [r12, r3]
    2c2c:	2affffd9 	bcs	2b98 <_free_r+0xdc>
    2c30:	eaffffc6 	b	2b50 <_free_r+0x94>
    2c34:	e3110001 	tst	r1, #1
    2c38:	e0833002 	add	r3, r3, r2
    2c3c:	1a000006 	bne	2c5c <_free_r+0x1a0>
    2c40:	e5142008 	ldr	r2, [r4, #-8]
    2c44:	e04cc002 	sub	r12, r12, r2
    2c48:	e28c0008 	add	r0, r12, #8
    2c4c:	e8900003 	ldm	r0, {r0, r1}
    2c50:	e580100c 	str	r1, [r0, #12]
    2c54:	e5810008 	str	r0, [r1, #8]
    2c58:	e0833002 	add	r3, r3, r2
    2c5c:	e59f212c 	ldr	r2, [pc, #300]	; 2d90 <_free_r+0x2d4>
    2c60:	e5921000 	ldr	r1, [r2]
    2c64:	e3832001 	orr	r2, r3, #1
    2c68:	e1530001 	cmp	r3, r1
    2c6c:	e58c2004 	str	r2, [r12, #4]
    2c70:	e58ec008 	str	r12, [lr, #8]
    2c74:	3affffc3 	bcc	2b88 <_free_r+0xcc>
    2c78:	e59f3114 	ldr	r3, [pc, #276]	; 2d94 <_free_r+0x2d8>
    2c7c:	e1a00005 	mov	r0, r5
    2c80:	e5931000 	ldr	r1, [r3]
    2c84:	ebffff4c 	bl	29bc <_malloc_trim_r>
    2c88:	eaffffbe 	b	2b88 <_free_r+0xcc>
    2c8c:	e1a00002 	mov	r0, r2
    2c90:	eaffffd3 	b	2be4 <_free_r+0x128>
    2c94:	e0801002 	add	r1, r0, r2
    2c98:	e5911004 	ldr	r1, [r1, #4]
    2c9c:	e3110001 	tst	r1, #1
    2ca0:	1a000034 	bne	2d78 <_free_r+0x2bc>
    2ca4:	e2801008 	add	r1, r0, #8
    2ca8:	e0823003 	add	r3, r2, r3
    2cac:	e8910006 	ldm	r1, {r1, r2}
    2cb0:	e3830001 	orr	r0, r3, #1
    2cb4:	e581200c 	str	r2, [r1, #12]
    2cb8:	e5821008 	str	r1, [r2, #8]
    2cbc:	e58c0004 	str	r0, [r12, #4]
    2cc0:	e78c3003 	str	r3, [r12, r3]
    2cc4:	eaffffaf 	b	2b88 <_free_r+0xcc>
    2cc8:	e3520014 	cmp	r2, #20
    2ccc:	8a000012 	bhi	2d1c <_free_r+0x260>
    2cd0:	e282405c 	add	r4, r2, #92	; 0x5c
    2cd4:	e1a04184 	lsl	r4, r4, #3
    2cd8:	e282105b 	add	r1, r2, #91	; 0x5b
    2cdc:	eaffffb4 	b	2bb4 <_free_r+0xf8>
    2ce0:	e3a04001 	mov	r4, #1
    2ce4:	e59e3004 	ldr	r3, [lr, #4]
    2ce8:	e1a02141 	asr	r2, r1, #2
    2cec:	e1832214 	orr	r2, r3, r4, lsl r2
    2cf0:	e58e2004 	str	r2, [lr, #4]
    2cf4:	e1a03000 	mov	r3, r0
    2cf8:	eaffffba 	b	2be8 <_free_r+0x12c>
    2cfc:	e3832001 	orr	r2, r3, #1
    2d00:	e58ec014 	str	r12, [lr, #20]
    2d04:	e58ec010 	str	r12, [lr, #16]
    2d08:	e58c100c 	str	r1, [r12, #12]
    2d0c:	e58c1008 	str	r1, [r12, #8]
    2d10:	e58c2004 	str	r2, [r12, #4]
    2d14:	e78c3003 	str	r3, [r12, r3]
    2d18:	eaffff9a 	b	2b88 <_free_r+0xcc>
    2d1c:	e3520054 	cmp	r2, #84	; 0x54
    2d20:	8a000004 	bhi	2d38 <_free_r+0x27c>
    2d24:	e1a02623 	lsr	r2, r3, #12
    2d28:	e282406f 	add	r4, r2, #111	; 0x6f
    2d2c:	e1a04184 	lsl	r4, r4, #3
    2d30:	e282106e 	add	r1, r2, #110	; 0x6e
    2d34:	eaffff9e 	b	2bb4 <_free_r+0xf8>
    2d38:	e3520f55 	cmp	r2, #340	; 0x154
    2d3c:	8a000004 	bhi	2d54 <_free_r+0x298>
    2d40:	e1a027a3 	lsr	r2, r3, #15
    2d44:	e2824078 	add	r4, r2, #120	; 0x78
    2d48:	e1a04184 	lsl	r4, r4, #3
    2d4c:	e2821077 	add	r1, r2, #119	; 0x77
    2d50:	eaffff97 	b	2bb4 <_free_r+0xf8>
    2d54:	e59f103c 	ldr	r1, [pc, #60]	; 2d98 <_free_r+0x2dc>
    2d58:	e1520001 	cmp	r2, r1
    2d5c:	91a02923 	lsrls	r2, r3, #18
    2d60:	9282407d 	addls	r4, r2, #125	; 0x7d
    2d64:	91a04184 	lslls	r4, r4, #3
    2d68:	9282107c 	addls	r1, r2, #124	; 0x7c
    2d6c:	83a04ffe 	movhi	r4, #1016	; 0x3f8
    2d70:	83a0107e 	movhi	r1, #126	; 0x7e
    2d74:	eaffff8e 	b	2bb4 <_free_r+0xf8>
    2d78:	e3832001 	orr	r2, r3, #1
    2d7c:	e58c2004 	str	r2, [r12, #4]
    2d80:	e5803000 	str	r3, [r0]
    2d84:	eaffff7f 	b	2b88 <_free_r+0xcc>
    2d88:	00003ff0 	.word	0x00003ff0
    2d8c:	00003ff8 	.word	0x00003ff8
    2d90:	000043fc 	.word	0x000043fc
    2d94:	00004430 	.word	0x00004430
    2d98:	00000554 	.word	0x00000554

00002d9c <_lseek_r>:
    2d9c:	e92d4070 	push	{r4, r5, r6, lr}
    2da0:	e1a0e001 	mov	lr, r1
    2da4:	e3a0c000 	mov	r12, #0
    2da8:	e59f4030 	ldr	r4, [pc, #48]	; 2de0 <_lseek_r+0x44>
    2dac:	e1a01002 	mov	r1, r2
    2db0:	e1a05000 	mov	r5, r0
    2db4:	e1a02003 	mov	r2, r3
    2db8:	e1a0000e 	mov	r0, lr
    2dbc:	e584c000 	str	r12, [r4]
    2dc0:	eb0001c0 	bl	34c8 <_lseek>
    2dc4:	e3700001 	cmn	r0, #1
    2dc8:	1a000002 	bne	2dd8 <_lseek_r+0x3c>
    2dcc:	e5943000 	ldr	r3, [r4]
    2dd0:	e3530000 	cmp	r3, #0
    2dd4:	15853000 	strne	r3, [r5]
    2dd8:	e8bd4070 	pop	{r4, r5, r6, lr}
    2ddc:	e12fff1e 	bx	lr
    2de0:	00004468 	.word	0x00004468

00002de4 <__swhatbuf_r>:
    2de4:	e92d4070 	push	{r4, r5, r6, lr}
    2de8:	e1a04001 	mov	r4, r1
    2dec:	e1d110fe 	ldrsh	r1, [r1, #14]
    2df0:	e3510000 	cmp	r1, #0
    2df4:	e24dd040 	sub	sp, sp, #64	; 0x40
    2df8:	e1a05002 	mov	r5, r2
    2dfc:	e1a06003 	mov	r6, r3
    2e00:	ba00000f 	blt	2e44 <__swhatbuf_r+0x60>
    2e04:	e28d2004 	add	r2, sp, #4
    2e08:	eb0000b2 	bl	30d8 <_fstat_r>
    2e0c:	e3500000 	cmp	r0, #0
    2e10:	ba00000b 	blt	2e44 <__swhatbuf_r+0x60>
    2e14:	e59d2008 	ldr	r2, [sp, #8]
    2e18:	e2022a0f 	and	r2, r2, #61440	; 0xf000
    2e1c:	e2423a02 	sub	r3, r2, #8192	; 0x2000
    2e20:	e2732000 	rsbs	r2, r3, #0
    2e24:	e0a22003 	adc	r2, r2, r3
    2e28:	e3a00b02 	mov	r0, #2048	; 0x800
    2e2c:	e3a03b01 	mov	r3, #1024	; 0x400
    2e30:	e5862000 	str	r2, [r6]
    2e34:	e5853000 	str	r3, [r5]
    2e38:	e28dd040 	add	sp, sp, #64	; 0x40
    2e3c:	e8bd4070 	pop	{r4, r5, r6, lr}
    2e40:	e12fff1e 	bx	lr
    2e44:	e3a03000 	mov	r3, #0
    2e48:	e1d420bc 	ldrh	r2, [r4, #12]
    2e4c:	e2120080 	ands	r0, r2, #128	; 0x80
    2e50:	e5863000 	str	r3, [r6]
    2e54:	0a000005 	beq	2e70 <__swhatbuf_r+0x8c>
    2e58:	e3a02040 	mov	r2, #64	; 0x40
    2e5c:	e1a00003 	mov	r0, r3
    2e60:	e5852000 	str	r2, [r5]
    2e64:	e28dd040 	add	sp, sp, #64	; 0x40
    2e68:	e8bd4070 	pop	{r4, r5, r6, lr}
    2e6c:	e12fff1e 	bx	lr
    2e70:	e3a03b01 	mov	r3, #1024	; 0x400
    2e74:	e5853000 	str	r3, [r5]
    2e78:	e28dd040 	add	sp, sp, #64	; 0x40
    2e7c:	e8bd4070 	pop	{r4, r5, r6, lr}
    2e80:	e12fff1e 	bx	lr

00002e84 <__smakebuf_r>:
    2e84:	e92d4070 	push	{r4, r5, r6, lr}
    2e88:	e1d120bc 	ldrh	r2, [r1, #12]
    2e8c:	e3120002 	tst	r2, #2
    2e90:	e24dd008 	sub	sp, sp, #8
    2e94:	e1a04001 	mov	r4, r1
    2e98:	0a000007 	beq	2ebc <__smakebuf_r+0x38>
    2e9c:	e3a01001 	mov	r1, #1
    2ea0:	e2842043 	add	r2, r4, #67	; 0x43
    2ea4:	e5841014 	str	r1, [r4, #20]
    2ea8:	e5842000 	str	r2, [r4]
    2eac:	e5842010 	str	r2, [r4, #16]
    2eb0:	e28dd008 	add	sp, sp, #8
    2eb4:	e8bd4070 	pop	{r4, r5, r6, lr}
    2eb8:	e12fff1e 	bx	lr
    2ebc:	e28d3004 	add	r3, sp, #4
    2ec0:	e1a0200d 	mov	r2, sp
    2ec4:	e1a05000 	mov	r5, r0
    2ec8:	ebffffc5 	bl	2de4 <__swhatbuf_r>
    2ecc:	e59d1000 	ldr	r1, [sp]
    2ed0:	e1a06000 	mov	r6, r0
    2ed4:	e1a00005 	mov	r0, r5
    2ed8:	ebfff899 	bl	1144 <_malloc_r>
    2edc:	e3500000 	cmp	r0, #0
    2ee0:	e1d430fc 	ldrsh	r3, [r4, #12]
    2ee4:	0a000016 	beq	2f44 <__smakebuf_r+0xc0>
    2ee8:	e59dc004 	ldr	r12, [sp, #4]
    2eec:	e59f1078 	ldr	r1, [pc, #120]	; 2f6c <__smakebuf_r+0xe8>
    2ef0:	e59d2000 	ldr	r2, [sp]
    2ef4:	e3833080 	orr	r3, r3, #128	; 0x80
    2ef8:	e35c0000 	cmp	r12, #0
    2efc:	e585103c 	str	r1, [r5, #60]	; 0x3c
    2f00:	e1c430bc 	strh	r3, [r4, #12]
    2f04:	e5840000 	str	r0, [r4]
    2f08:	e5840010 	str	r0, [r4, #16]
    2f0c:	e5842014 	str	r2, [r4, #20]
    2f10:	1a000004 	bne	2f28 <__smakebuf_r+0xa4>
    2f14:	e1833006 	orr	r3, r3, r6
    2f18:	e1c430bc 	strh	r3, [r4, #12]
    2f1c:	e28dd008 	add	sp, sp, #8
    2f20:	e8bd4070 	pop	{r4, r5, r6, lr}
    2f24:	e12fff1e 	bx	lr
    2f28:	e1a00005 	mov	r0, r5
    2f2c:	e1d410fe 	ldrsh	r1, [r4, #14]
    2f30:	eb000079 	bl	311c <_isatty_r>
    2f34:	e1d430fc 	ldrsh	r3, [r4, #12]
    2f38:	e3500000 	cmp	r0, #0
    2f3c:	13833001 	orrne	r3, r3, #1
    2f40:	eafffff3 	b	2f14 <__smakebuf_r+0x90>
    2f44:	e3130c02 	tst	r3, #512	; 0x200
    2f48:	1affffd8 	bne	2eb0 <__smakebuf_r+0x2c>
    2f4c:	e3a01001 	mov	r1, #1
    2f50:	e2842043 	add	r2, r4, #67	; 0x43
    2f54:	e3833002 	orr	r3, r3, #2
    2f58:	e1c430bc 	strh	r3, [r4, #12]
    2f5c:	e5841014 	str	r1, [r4, #20]
    2f60:	e5842000 	str	r2, [r4]
    2f64:	e5842010 	str	r2, [r4, #16]
    2f68:	eaffffd0 	b	2eb0 <__smakebuf_r+0x2c>
    2f6c:	000006ec 	.word	0x000006ec

00002f70 <_read_r>:
    2f70:	e92d4070 	push	{r4, r5, r6, lr}
    2f74:	e1a0e001 	mov	lr, r1
    2f78:	e3a0c000 	mov	r12, #0
    2f7c:	e59f4030 	ldr	r4, [pc, #48]	; 2fb4 <_read_r+0x44>
    2f80:	e1a01002 	mov	r1, r2
    2f84:	e1a05000 	mov	r5, r0
    2f88:	e1a02003 	mov	r2, r3
    2f8c:	e1a0000e 	mov	r0, lr
    2f90:	e584c000 	str	r12, [r4]
    2f94:	eb000186 	bl	35b4 <_read>
    2f98:	e3700001 	cmn	r0, #1
    2f9c:	1a000002 	bne	2fac <_read_r+0x3c>
    2fa0:	e5943000 	ldr	r3, [r4]
    2fa4:	e3530000 	cmp	r3, #0
    2fa8:	15853000 	strne	r3, [r5]
    2fac:	e8bd4070 	pop	{r4, r5, r6, lr}
    2fb0:	e12fff1e 	bx	lr
    2fb4:	00004468 	.word	0x00004468

00002fb8 <cleanup_glue>:
    2fb8:	e92d4070 	push	{r4, r5, r6, lr}
    2fbc:	e1a04001 	mov	r4, r1
    2fc0:	e5911000 	ldr	r1, [r1]
    2fc4:	e3510000 	cmp	r1, #0
    2fc8:	e1a05000 	mov	r5, r0
    2fcc:	1bfffff9 	blne	2fb8 <cleanup_glue>
    2fd0:	e1a01004 	mov	r1, r4
    2fd4:	e1a00005 	mov	r0, r5
    2fd8:	ebfffeb7 	bl	2abc <_free_r>
    2fdc:	e8bd4070 	pop	{r4, r5, r6, lr}
    2fe0:	e12fff1e 	bx	lr

00002fe4 <_reclaim_reent>:
    2fe4:	e59f30e8 	ldr	r3, [pc, #232]	; 30d4 <_reclaim_reent+0xf0>
    2fe8:	e5933000 	ldr	r3, [r3]
    2fec:	e1530000 	cmp	r3, r0
    2ff0:	012fff1e 	bxeq	lr
    2ff4:	e590304c 	ldr	r3, [r0, #76]	; 0x4c
    2ff8:	e3530000 	cmp	r3, #0
    2ffc:	e92d4070 	push	{r4, r5, r6, lr}
    3000:	e1a05000 	mov	r5, r0
    3004:	0a00000f 	beq	3048 <_reclaim_reent+0x64>
    3008:	e3a06000 	mov	r6, #0
    300c:	e7931006 	ldr	r1, [r3, r6]
    3010:	e3510000 	cmp	r1, #0
    3014:	0a000005 	beq	3030 <_reclaim_reent+0x4c>
    3018:	e5914000 	ldr	r4, [r1]
    301c:	e1a00005 	mov	r0, r5
    3020:	ebfffea5 	bl	2abc <_free_r>
    3024:	e2541000 	subs	r1, r4, #0
    3028:	1afffffa 	bne	3018 <_reclaim_reent+0x34>
    302c:	e595304c 	ldr	r3, [r5, #76]	; 0x4c
    3030:	e2866004 	add	r6, r6, #4
    3034:	e3560080 	cmp	r6, #128	; 0x80
    3038:	1afffff3 	bne	300c <_reclaim_reent+0x28>
    303c:	e1a01003 	mov	r1, r3
    3040:	e1a00005 	mov	r0, r5
    3044:	ebfffe9c 	bl	2abc <_free_r>
    3048:	e5951040 	ldr	r1, [r5, #64]	; 0x40
    304c:	e3510000 	cmp	r1, #0
    3050:	11a00005 	movne	r0, r5
    3054:	1bfffe98 	blne	2abc <_free_r>
    3058:	e5951148 	ldr	r1, [r5, #328]	; 0x148
    305c:	e3510000 	cmp	r1, #0
    3060:	0a000008 	beq	3088 <_reclaim_reent+0xa4>
    3064:	e2856f53 	add	r6, r5, #332	; 0x14c
    3068:	e1510006 	cmp	r1, r6
    306c:	0a000005 	beq	3088 <_reclaim_reent+0xa4>
    3070:	e5914000 	ldr	r4, [r1]
    3074:	e1a00005 	mov	r0, r5
    3078:	ebfffe8f 	bl	2abc <_free_r>
    307c:	e1560004 	cmp	r6, r4
    3080:	e1a01004 	mov	r1, r4
    3084:	1afffff9 	bne	3070 <_reclaim_reent+0x8c>
    3088:	e5951054 	ldr	r1, [r5, #84]	; 0x54
    308c:	e3510000 	cmp	r1, #0
    3090:	11a00005 	movne	r0, r5
    3094:	1bfffe88 	blne	2abc <_free_r>
    3098:	e5953038 	ldr	r3, [r5, #56]	; 0x38
    309c:	e3530000 	cmp	r3, #0
    30a0:	1a000001 	bne	30ac <_reclaim_reent+0xc8>
    30a4:	e8bd4070 	pop	{r4, r5, r6, lr}
    30a8:	e12fff1e 	bx	lr
    30ac:	e595303c 	ldr	r3, [r5, #60]	; 0x3c
    30b0:	e1a00005 	mov	r0, r5
    30b4:	e1a0e00f 	mov	lr, pc
    30b8:	e12fff13 	bx	r3
    30bc:	e59512e0 	ldr	r1, [r5, #736]	; 0x2e0
    30c0:	e3510000 	cmp	r1, #0
    30c4:	0afffff6 	beq	30a4 <_reclaim_reent+0xc0>
    30c8:	e1a00005 	mov	r0, r5
    30cc:	e8bd4070 	pop	{r4, r5, r6, lr}
    30d0:	eaffffb8 	b	2fb8 <cleanup_glue>
    30d4:	00003bc0 	.word	0x00003bc0

000030d8 <_fstat_r>:
    30d8:	e1a0c001 	mov	r12, r1
    30dc:	e3a03000 	mov	r3, #0
    30e0:	e92d4070 	push	{r4, r5, r6, lr}
    30e4:	e59f402c 	ldr	r4, [pc, #44]	; 3118 <_fstat_r+0x40>
    30e8:	e1a05000 	mov	r5, r0
    30ec:	e1a01002 	mov	r1, r2
    30f0:	e1a0000c 	mov	r0, r12
    30f4:	e5843000 	str	r3, [r4]
    30f8:	eb0000be 	bl	33f8 <_fstat>
    30fc:	e3700001 	cmn	r0, #1
    3100:	1a000002 	bne	3110 <_fstat_r+0x38>
    3104:	e5943000 	ldr	r3, [r4]
    3108:	e3530000 	cmp	r3, #0
    310c:	15853000 	strne	r3, [r5]
    3110:	e8bd4070 	pop	{r4, r5, r6, lr}
    3114:	e12fff1e 	bx	lr
    3118:	00004468 	.word	0x00004468

0000311c <_isatty_r>:
    311c:	e3a03000 	mov	r3, #0
    3120:	e92d4070 	push	{r4, r5, r6, lr}
    3124:	e59f4028 	ldr	r4, [pc, #40]	; 3154 <_isatty_r+0x38>
    3128:	e1a05000 	mov	r5, r0
    312c:	e1a00001 	mov	r0, r1
    3130:	e5843000 	str	r3, [r4]
    3134:	eb0000cf 	bl	3478 <_isatty>
    3138:	e3700001 	cmn	r0, #1
    313c:	1a000002 	bne	314c <_isatty_r+0x30>
    3140:	e5943000 	ldr	r3, [r4]
    3144:	e3530000 	cmp	r3, #0
    3148:	15853000 	strne	r3, [r5]
    314c:	e8bd4070 	pop	{r4, r5, r6, lr}
    3150:	e12fff1e 	bx	lr
    3154:	00004468 	.word	0x00004468

00003158 <__aeabi_idiv>:
    3158:	e3510000 	cmp	r1, #0
    315c:	0a000043 	beq	3270 <.divsi3_skip_div0_test+0x110>

00003160 <.divsi3_skip_div0_test>:
    3160:	e020c001 	eor	r12, r0, r1
    3164:	42611000 	rsbmi	r1, r1, #0
    3168:	e2512001 	subs	r2, r1, #1
    316c:	0a000027 	beq	3210 <.divsi3_skip_div0_test+0xb0>
    3170:	e1b03000 	movs	r3, r0
    3174:	42603000 	rsbmi	r3, r0, #0
    3178:	e1530001 	cmp	r3, r1
    317c:	9a000026 	bls	321c <.divsi3_skip_div0_test+0xbc>
    3180:	e1110002 	tst	r1, r2
    3184:	0a000028 	beq	322c <.divsi3_skip_div0_test+0xcc>
    3188:	e311020e 	tst	r1, #-536870912	; 0xe0000000
    318c:	01a01181 	lsleq	r1, r1, #3
    3190:	03a02008 	moveq	r2, #8
    3194:	13a02001 	movne	r2, #1
    3198:	e3510201 	cmp	r1, #268435456	; 0x10000000
    319c:	31510003 	cmpcc	r1, r3
    31a0:	31a01201 	lslcc	r1, r1, #4
    31a4:	31a02202 	lslcc	r2, r2, #4
    31a8:	3afffffa 	bcc	3198 <.divsi3_skip_div0_test+0x38>
    31ac:	e3510102 	cmp	r1, #-2147483648	; 0x80000000
    31b0:	31510003 	cmpcc	r1, r3
    31b4:	31a01081 	lslcc	r1, r1, #1
    31b8:	31a02082 	lslcc	r2, r2, #1
    31bc:	3afffffa 	bcc	31ac <.divsi3_skip_div0_test+0x4c>
    31c0:	e3a00000 	mov	r0, #0
    31c4:	e1530001 	cmp	r3, r1
    31c8:	20433001 	subcs	r3, r3, r1
    31cc:	21800002 	orrcs	r0, r0, r2
    31d0:	e15300a1 	cmp	r3, r1, lsr #1
    31d4:	204330a1 	subcs	r3, r3, r1, lsr #1
    31d8:	218000a2 	orrcs	r0, r0, r2, lsr #1
    31dc:	e1530121 	cmp	r3, r1, lsr #2
    31e0:	20433121 	subcs	r3, r3, r1, lsr #2
    31e4:	21800122 	orrcs	r0, r0, r2, lsr #2
    31e8:	e15301a1 	cmp	r3, r1, lsr #3
    31ec:	204331a1 	subcs	r3, r3, r1, lsr #3
    31f0:	218001a2 	orrcs	r0, r0, r2, lsr #3
    31f4:	e3530000 	cmp	r3, #0
    31f8:	11b02222 	lsrsne	r2, r2, #4
    31fc:	11a01221 	lsrne	r1, r1, #4
    3200:	1affffef 	bne	31c4 <.divsi3_skip_div0_test+0x64>
    3204:	e35c0000 	cmp	r12, #0
    3208:	42600000 	rsbmi	r0, r0, #0
    320c:	e12fff1e 	bx	lr
    3210:	e13c0000 	teq	r12, r0
    3214:	42600000 	rsbmi	r0, r0, #0
    3218:	e12fff1e 	bx	lr
    321c:	33a00000 	movcc	r0, #0
    3220:	01a00fcc 	asreq	r0, r12, #31
    3224:	03800001 	orreq	r0, r0, #1
    3228:	e12fff1e 	bx	lr
    322c:	e3510801 	cmp	r1, #65536	; 0x10000
    3230:	21a01821 	lsrcs	r1, r1, #16
    3234:	23a02010 	movcs	r2, #16
    3238:	33a02000 	movcc	r2, #0
    323c:	e3510c01 	cmp	r1, #256	; 0x100
    3240:	21a01421 	lsrcs	r1, r1, #8
    3244:	22822008 	addcs	r2, r2, #8
    3248:	e3510010 	cmp	r1, #16
    324c:	21a01221 	lsrcs	r1, r1, #4
    3250:	22822004 	addcs	r2, r2, #4
    3254:	e3510004 	cmp	r1, #4
    3258:	82822003 	addhi	r2, r2, #3
    325c:	908220a1 	addls	r2, r2, r1, lsr #1
    3260:	e35c0000 	cmp	r12, #0
    3264:	e1a00233 	lsr	r0, r3, r2
    3268:	42600000 	rsbmi	r0, r0, #0
    326c:	e12fff1e 	bx	lr
    3270:	e3500000 	cmp	r0, #0
    3274:	c3e00102 	mvngt	r0, #-2147483648	; 0x80000000
    3278:	b3a00102 	movlt	r0, #-2147483648	; 0x80000000
    327c:	ea000007 	b	32a0 <__aeabi_idiv0>

00003280 <__aeabi_idivmod>:
    3280:	e3510000 	cmp	r1, #0
    3284:	0afffff9 	beq	3270 <.divsi3_skip_div0_test+0x110>
    3288:	e92d4003 	push	{r0, r1, lr}
    328c:	ebffffb3 	bl	3160 <.divsi3_skip_div0_test>
    3290:	e8bd4006 	pop	{r1, r2, lr}
    3294:	e0030092 	mul	r3, r2, r0
    3298:	e0411003 	sub	r1, r1, r3
    329c:	e12fff1e 	bx	lr

000032a0 <__aeabi_idiv0>:
    32a0:	e12fff1e 	bx	lr

000032a4 <__generic_gxx_active_p>:
    32a4:	e3a00000 	mov	r0, #0
    32a8:	e12fff1e 	bx	lr

000032ac <__generic_gxx_key_create>:
    32ac:	e3e00000 	mvn	r0, #0
    32b0:	e12fff1e 	bx	lr

000032b4 <__generic_gxx_once>:
    32b4:	eafffffc 	b	32ac <__generic_gxx_key_create>

000032b8 <__generic_gxx_key_delete>:
    32b8:	e3e00000 	mvn	r0, #0
    32bc:	e12fff1e 	bx	lr

000032c0 <__generic_gxx_getspecific>:
    32c0:	e3a00000 	mov	r0, #0
    32c4:	e12fff1e 	bx	lr

000032c8 <__generic_gxx_setspecific>:
    32c8:	e3e00000 	mvn	r0, #0
    32cc:	e12fff1e 	bx	lr

000032d0 <__generic_gxx_recursive_mutex_init_function>:
    32d0:	e12fff1e 	bx	lr

000032d4 <__generic_gxx_mutex_init_function>:
    32d4:	eafffffd 	b	32d0 <__generic_gxx_recursive_mutex_init_function>

000032d8 <__generic_gxx_recursive_mutex_destroy>:
    32d8:	e3a00000 	mov	r0, #0
    32dc:	e12fff1e 	bx	lr

000032e0 <__generic_gxx_recursive_mutex_unlock>:
    32e0:	eafffffc 	b	32d8 <__generic_gxx_recursive_mutex_destroy>

000032e4 <__generic_gxx_recursive_mutex_trylock>:
    32e4:	eafffffb 	b	32d8 <__generic_gxx_recursive_mutex_destroy>

000032e8 <__generic_gxx_recursive_mutex_lock>:
    32e8:	eafffffa 	b	32d8 <__generic_gxx_recursive_mutex_destroy>

000032ec <__generic_gxx_mutex_unlock>:
    32ec:	eafffff9 	b	32d8 <__generic_gxx_recursive_mutex_destroy>

000032f0 <__generic_gxx_mutex_trylock>:
    32f0:	eafffff8 	b	32d8 <__generic_gxx_recursive_mutex_destroy>

000032f4 <__generic_gxx_mutex_lock>:
    32f4:	eafffff7 	b	32d8 <__generic_gxx_recursive_mutex_destroy>

000032f8 <__generic_gxx_mutex_destroy>:
    32f8:	eafffff6 	b	32d8 <__generic_gxx_recursive_mutex_destroy>

000032fc <__cs3_premain>:
    32fc:	e92d4010 	push	{r4, lr}
    3300:	eb0001ea 	bl	3ab0 <__libc_init_array>
    3304:	e59f3030 	ldr	r3, [pc, #48]	; 333c <__cs3_premain+0x40>
    3308:	e3530000 	cmp	r3, #0
    330c:	15930000 	ldrne	r0, [r3]
    3310:	01a00003 	moveq	r0, r3
    3314:	e59f3024 	ldr	r3, [pc, #36]	; 3340 <__cs3_premain+0x44>
    3318:	e3530000 	cmp	r3, #0
    331c:	15931000 	ldrne	r1, [r3]
    3320:	01a01003 	moveq	r1, r3
    3324:	e3a02000 	mov	r2, #0
    3328:	ebfff3c1 	bl	234 <main>
    332c:	e59f3010 	ldr	r3, [pc, #16]	; 3344 <__cs3_premain+0x48>
    3330:	e3530000 	cmp	r3, #0
    3334:	1bfff3cc 	blne	26c <exit>
    3338:	eafffffe 	b	3338 <__cs3_premain+0x3c>
    333c:	00004514 	.word	0x00004514
    3340:	00004510 	.word	0x00004510
    3344:	0000026c 	.word	0x0000026c

00003348 <_close>:
    3348:	e92d4070 	push	{r4, r5, r6, lr}
    334c:	e1a05000 	mov	r5, r0
    3350:	eb00011b 	bl	37c4 <__cs3_openslot>
    3354:	e2504000 	subs	r4, r0, #0
    3358:	0a00001d 	beq	33d4 <_close+0x8c>
    335c:	e59f3078 	ldr	r3, [pc, #120]	; 33dc <_close+0x94>
    3360:	e3530000 	cmp	r3, #0
    3364:	0a000002 	beq	3374 <_close+0x2c>
    3368:	e5943000 	ldr	r3, [r4]
    336c:	e3530002 	cmp	r3, #2
    3370:	da000012 	ble	33c0 <_close+0x78>
    3374:	e2453001 	sub	r3, r5, #1
    3378:	e3530001 	cmp	r3, #1
    337c:	9a000008 	bls	33a4 <_close+0x5c>
    3380:	e3a00002 	mov	r0, #2
    3384:	e1a01004 	mov	r1, r4
    3388:	ef123456 	svc	0x00123456
    338c:	e3500000 	cmp	r0, #0
    3390:	03e03000 	mvneq	r3, #0
    3394:	05843000 	streq	r3, [r4]
    3398:	eb00013d 	bl	3894 <__cs3_checkerror>
    339c:	e8bd4070 	pop	{r4, r5, r6, lr}
    33a0:	e12fff1e 	bx	lr
    33a4:	e3550001 	cmp	r5, #1
    33a8:	03a03008 	moveq	r3, #8
    33ac:	13e03007 	mvnne	r3, #7
    33b0:	e5942000 	ldr	r2, [r4]
    33b4:	e7943003 	ldr	r3, [r4, r3]
    33b8:	e1520003 	cmp	r2, r3
    33bc:	1affffef 	bne	3380 <_close+0x38>
    33c0:	e3e03000 	mvn	r3, #0
    33c4:	e3a00000 	mov	r0, #0
    33c8:	e5843000 	str	r3, [r4]
    33cc:	e8bd4070 	pop	{r4, r5, r6, lr}
    33d0:	e12fff1e 	bx	lr
    33d4:	e3e00000 	mvn	r0, #0
    33d8:	eaffffef 	b	339c <_close+0x54>
    33dc:	00000000 	.word	0x00000000

000033e0 <_exit>:
    33e0:	e52de004 	push	{lr}		; (str lr, [sp, #-4]!)
    33e4:	e3a00018 	mov	r0, #24
    33e8:	e59f1004 	ldr	r1, [pc, #4]	; 33f4 <_exit+0x14>
    33ec:	ef123456 	svc	0x00123456
    33f0:	eafffffe 	b	33f0 <_exit+0x10>
    33f4:	00020026 	.word	0x00020026

000033f8 <_fstat>:
    33f8:	e92d4070 	push	{r4, r5, r6, lr}
    33fc:	e1a04001 	mov	r4, r1
    3400:	eb0000ef 	bl	37c4 <__cs3_openslot>
    3404:	e2505000 	subs	r5, r0, #0
    3408:	0a000017 	beq	346c <_fstat+0x74>
    340c:	e3a0203c 	mov	r2, #60	; 0x3c
    3410:	e3a01000 	mov	r1, #0
    3414:	e1a00004 	mov	r0, r4
    3418:	ebfff9f8 	bl	1c00 <memset>
    341c:	e3a02a02 	mov	r2, #8192	; 0x2000
    3420:	e3a03b01 	mov	r3, #1024	; 0x400
    3424:	e59f1048 	ldr	r1, [pc, #72]	; 3474 <_fstat+0x7c>
    3428:	e3510000 	cmp	r1, #0
    342c:	e5842004 	str	r2, [r4, #4]
    3430:	e584302c 	str	r3, [r4, #44]	; 0x2c
    3434:	0a000003 	beq	3448 <_fstat+0x50>
    3438:	e5953000 	ldr	r3, [r5]
    343c:	e3530002 	cmp	r3, #2
    3440:	d3a00000 	movle	r0, #0
    3444:	da000006 	ble	3464 <_fstat+0x6c>
    3448:	e1a01005 	mov	r1, r5
    344c:	e3a0000c 	mov	r0, #12
    3450:	ef123456 	svc	0x00123456
    3454:	e3700001 	cmn	r0, #1
    3458:	15840010 	strne	r0, [r4, #16]
    345c:	13a00000 	movne	r0, #0
    3460:	eb00010b 	bl	3894 <__cs3_checkerror>
    3464:	e8bd4070 	pop	{r4, r5, r6, lr}
    3468:	e12fff1e 	bx	lr
    346c:	e3e00000 	mvn	r0, #0
    3470:	eafffffb 	b	3464 <_fstat+0x6c>
    3474:	00000000 	.word	0x00000000

00003478 <_isatty>:
    3478:	e92d4010 	push	{r4, lr}
    347c:	eb0000d0 	bl	37c4 <__cs3_openslot>
    3480:	e2501000 	subs	r1, r0, #0
    3484:	0a00000b 	beq	34b8 <_isatty+0x40>
    3488:	e59f3034 	ldr	r3, [pc, #52]	; 34c4 <_isatty+0x4c>
    348c:	e3530000 	cmp	r3, #0
    3490:	0a000003 	beq	34a4 <_isatty+0x2c>
    3494:	e5913000 	ldr	r3, [r1]
    3498:	e3530002 	cmp	r3, #2
    349c:	d3a00001 	movle	r0, #1
    34a0:	da000002 	ble	34b0 <_isatty+0x38>
    34a4:	e3a00009 	mov	r0, #9
    34a8:	ef123456 	svc	0x00123456
    34ac:	eb0000f8 	bl	3894 <__cs3_checkerror>
    34b0:	e8bd4010 	pop	{r4, lr}
    34b4:	e12fff1e 	bx	lr
    34b8:	e1a00001 	mov	r0, r1
    34bc:	e8bd4010 	pop	{r4, lr}
    34c0:	e12fff1e 	bx	lr
    34c4:	00000000 	.word	0x00000000

000034c8 <_lseek>:
    34c8:	e92d4070 	push	{r4, r5, r6, lr}
    34cc:	e24dd008 	sub	sp, sp, #8
    34d0:	e1a04001 	mov	r4, r1
    34d4:	e1a05002 	mov	r5, r2
    34d8:	eb0000b9 	bl	37c4 <__cs3_openslot>
    34dc:	e2506000 	subs	r6, r0, #0
    34e0:	0a000030 	beq	35a8 <_lseek+0xe0>
    34e4:	e3550001 	cmp	r5, #1
    34e8:	0a000026 	beq	3588 <_lseek+0xc0>
    34ec:	e3550002 	cmp	r5, #2
    34f0:	0a000009 	beq	351c <_lseek+0x54>
    34f4:	e3550000 	cmp	r5, #0
    34f8:	0a00000d 	beq	3534 <_lseek+0x6c>
    34fc:	eb000167 	bl	3aa0 <__errno>
    3500:	e3a02016 	mov	r2, #22
    3504:	e3e03000 	mvn	r3, #0
    3508:	e5802000 	str	r2, [r0]
    350c:	e1a00003 	mov	r0, r3
    3510:	e28dd008 	add	sp, sp, #8
    3514:	e8bd4070 	pop	{r4, r5, r6, lr}
    3518:	e12fff1e 	bx	lr
    351c:	e3a0000c 	mov	r0, #12
    3520:	e1a01006 	mov	r1, r6
    3524:	ef123456 	svc	0x00123456
    3528:	e3700001 	cmn	r0, #1
    352c:	0a00000f 	beq	3570 <_lseek+0xa8>
    3530:	e0844000 	add	r4, r4, r0
    3534:	e59f3074 	ldr	r3, [pc, #116]	; 35b0 <_lseek+0xe8>
    3538:	e3530000 	cmp	r3, #0
    353c:	e5963000 	ldr	r3, [r6]
    3540:	0a000001 	beq	354c <_lseek+0x84>
    3544:	e3530002 	cmp	r3, #2
    3548:	da000011 	ble	3594 <_lseek+0xcc>
    354c:	e3540000 	cmp	r4, #0
    3550:	e88d0018 	stm	sp, {r3, r4}
    3554:	baffffe8 	blt	34fc <_lseek+0x34>
    3558:	e3a0000a 	mov	r0, #10
    355c:	e1a0100d 	mov	r1, sp
    3560:	ef123456 	svc	0x00123456
    3564:	e3700001 	cmn	r0, #1
    3568:	11a00004 	movne	r0, r4
    356c:	15864004 	strne	r4, [r6, #4]
    3570:	eb0000c7 	bl	3894 <__cs3_checkerror>
    3574:	e1a03000 	mov	r3, r0
    3578:	e1a00003 	mov	r0, r3
    357c:	e28dd008 	add	sp, sp, #8
    3580:	e8bd4070 	pop	{r4, r5, r6, lr}
    3584:	e12fff1e 	bx	lr
    3588:	e5963004 	ldr	r3, [r6, #4]
    358c:	e0844003 	add	r4, r4, r3
    3590:	eaffffe7 	b	3534 <_lseek+0x6c>
    3594:	eb000141 	bl	3aa0 <__errno>
    3598:	e3a02009 	mov	r2, #9
    359c:	e3e03000 	mvn	r3, #0
    35a0:	e5802000 	str	r2, [r0]
    35a4:	eaffffd8 	b	350c <_lseek+0x44>
    35a8:	e3e03000 	mvn	r3, #0
    35ac:	eaffffd6 	b	350c <_lseek+0x44>
    35b0:	00000000 	.word	0x00000000

000035b4 <_read>:
    35b4:	e92d4070 	push	{r4, r5, r6, lr}
    35b8:	e24dd010 	sub	sp, sp, #16
    35bc:	e1a06001 	mov	r6, r1
    35c0:	e1a05002 	mov	r5, r2
    35c4:	eb00007e 	bl	37c4 <__cs3_openslot>
    35c8:	e2504000 	subs	r4, r0, #0
    35cc:	0a00000e 	beq	360c <_read+0x58>
    35d0:	e5943000 	ldr	r3, [r4]
    35d4:	e3a00006 	mov	r0, #6
    35d8:	e98d0048 	stmib	sp, {r3, r6}
    35dc:	e58d500c 	str	r5, [sp, #12]
    35e0:	e28d1004 	add	r1, sp, #4
    35e4:	ef123456 	svc	0x00123456
    35e8:	e3700001 	cmn	r0, #1
    35ec:	15943004 	ldrne	r3, [r4, #4]
    35f0:	10450000 	subne	r0, r5, r0
    35f4:	10833000 	addne	r3, r3, r0
    35f8:	15843004 	strne	r3, [r4, #4]
    35fc:	eb0000a4 	bl	3894 <__cs3_checkerror>
    3600:	e28dd010 	add	sp, sp, #16
    3604:	e8bd4070 	pop	{r4, r5, r6, lr}
    3608:	e12fff1e 	bx	lr
    360c:	e3e00000 	mvn	r0, #0
    3610:	eafffffa 	b	3600 <_read+0x4c>

00003614 <_write>:
    3614:	e92d4070 	push	{r4, r5, r6, lr}
    3618:	e24dd010 	sub	sp, sp, #16
    361c:	e1a06001 	mov	r6, r1
    3620:	e1a05002 	mov	r5, r2
    3624:	eb000066 	bl	37c4 <__cs3_openslot>
    3628:	e2504000 	subs	r4, r0, #0
    362c:	0a00000e 	beq	366c <_write+0x58>
    3630:	e5943000 	ldr	r3, [r4]
    3634:	e3a00005 	mov	r0, #5
    3638:	e98d0048 	stmib	sp, {r3, r6}
    363c:	e58d500c 	str	r5, [sp, #12]
    3640:	e28d1004 	add	r1, sp, #4
    3644:	ef123456 	svc	0x00123456
    3648:	e3700001 	cmn	r0, #1
    364c:	15943004 	ldrne	r3, [r4, #4]
    3650:	10450000 	subne	r0, r5, r0
    3654:	10833000 	addne	r3, r3, r0
    3658:	15843004 	strne	r3, [r4, #4]
    365c:	eb00008c 	bl	3894 <__cs3_checkerror>
    3660:	e28dd010 	add	sp, sp, #16
    3664:	e8bd4070 	pop	{r4, r5, r6, lr}
    3668:	e12fff1e 	bx	lr
    366c:	e3e00000 	mvn	r0, #0
    3670:	eafffffa 	b	3660 <_write+0x4c>

00003674 <_sbrk>:
    3674:	e59f1064 	ldr	r1, [pc, #100]	; 36e0 <_sbrk+0x6c>
    3678:	e59f2064 	ldr	r2, [pc, #100]	; 36e4 <_sbrk+0x70>
    367c:	e5913000 	ldr	r3, [r1]
    3680:	e5922000 	ldr	r2, [r2]
    3684:	e0830000 	add	r0, r3, r0
    3688:	e3520000 	cmp	r2, #0
    368c:	11520000 	cmpne	r2, r0
    3690:	e92d4010 	push	{r4, lr}
    3694:	3a00000a 	bcc	36c4 <_sbrk+0x50>
    3698:	e1a0200d 	mov	r2, sp
    369c:	e1530002 	cmp	r3, r2
    36a0:	9a000003 	bls	36b4 <_sbrk+0x40>
    36a4:	e5810000 	str	r0, [r1]
    36a8:	e8bd4010 	pop	{r4, lr}
    36ac:	e1a00003 	mov	r0, r3
    36b0:	e12fff1e 	bx	lr
    36b4:	e1a0c00d 	mov	r12, sp
    36b8:	e2802c01 	add	r2, r0, #256	; 0x100
    36bc:	e15c0002 	cmp	r12, r2
    36c0:	2afffff7 	bcs	36a4 <_sbrk+0x30>
    36c4:	eb0000f5 	bl	3aa0 <__errno>
    36c8:	e3a0200c 	mov	r2, #12
    36cc:	e3e03000 	mvn	r3, #0
    36d0:	e5802000 	str	r2, [r0]
    36d4:	e8bd4010 	pop	{r4, lr}
    36d8:	e1a00003 	mov	r0, r3
    36dc:	e12fff1e 	bx	lr
    36e0:	00004404 	.word	0x00004404
    36e4:	00004400 	.word	0x00004400

000036e8 <initialize_monitor_handles.part.0>:
    36e8:	e3a03000 	mov	r3, #0
    36ec:	e3e02000 	mvn	r2, #0
    36f0:	e92d4070 	push	{r4, r5, r6, lr}
    36f4:	e59f40bc 	ldr	r4, [pc, #188]	; 37b8 <initialize_monitor_handles.part.0+0xd0>
    36f8:	e24dd010 	sub	sp, sp, #16
    36fc:	e7842183 	str	r2, [r4, r3, lsl #3]
    3700:	e2833001 	add	r3, r3, #1
    3704:	e3530014 	cmp	r3, #20
    3708:	1afffffb 	bne	36fc <initialize_monitor_handles.part.0+0x14>
    370c:	e59f30a8 	ldr	r3, [pc, #168]	; 37bc <initialize_monitor_handles.part.0+0xd4>
    3710:	e3530000 	cmp	r3, #0
    3714:	0a00000a 	beq	3744 <initialize_monitor_handles.part.0+0x5c>
    3718:	e3a01000 	mov	r1, #0
    371c:	e3a02001 	mov	r2, #1
    3720:	e3a03002 	mov	r3, #2
    3724:	e5841000 	str	r1, [r4]
    3728:	e5842008 	str	r2, [r4, #8]
    372c:	e5843010 	str	r3, [r4, #16]
    3730:	e3a03001 	mov	r3, #1
    3734:	e58430a0 	str	r3, [r4, #160]	; 0xa0
    3738:	e28dd010 	add	sp, sp, #16
    373c:	e8bd4070 	pop	{r4, r5, r6, lr}
    3740:	e12fff1e 	bx	lr
    3744:	e3a05003 	mov	r5, #3
    3748:	e59f6070 	ldr	r6, [pc, #112]	; 37c0 <initialize_monitor_handles.part.0+0xd8>
    374c:	e58d3008 	str	r3, [sp, #8]
    3750:	e58d500c 	str	r5, [sp, #12]
    3754:	e58d6004 	str	r6, [sp, #4]
    3758:	e28d1004 	add	r1, sp, #4
    375c:	e3a00001 	mov	r0, #1
    3760:	ef123456 	svc	0x00123456
    3764:	e3a03004 	mov	r3, #4
    3768:	e5840000 	str	r0, [r4]
    376c:	e58d6004 	str	r6, [sp, #4]
    3770:	e58d500c 	str	r5, [sp, #12]
    3774:	e58d3008 	str	r3, [sp, #8]
    3778:	e08d1003 	add	r1, sp, r3
    377c:	e3a00001 	mov	r0, #1
    3780:	ef123456 	svc	0x00123456
    3784:	e3a03008 	mov	r3, #8
    3788:	e5840008 	str	r0, [r4, #8]
    378c:	e58d6004 	str	r6, [sp, #4]
    3790:	e58d500c 	str	r5, [sp, #12]
    3794:	e28d1004 	add	r1, sp, #4
    3798:	e58d3008 	str	r3, [sp, #8]
    379c:	e3a00001 	mov	r0, #1
    37a0:	ef123456 	svc	0x00123456
    37a4:	e3700001 	cmn	r0, #1
    37a8:	05943008 	ldreq	r3, [r4, #8]
    37ac:	e5840010 	str	r0, [r4, #16]
    37b0:	05843010 	streq	r3, [r4, #16]
    37b4:	eaffffdd 	b	3730 <initialize_monitor_handles.part.0+0x48>
    37b8:	0000446c 	.word	0x0000446c
    37bc:	00000000 	.word	0x00000000
    37c0:	00003b4c 	.word	0x00003b4c

000037c4 <__cs3_openslot>:
    37c4:	e92d4070 	push	{r4, r5, r6, lr}
    37c8:	e59f404c 	ldr	r4, [pc, #76]	; 381c <__cs3_openslot+0x58>
    37cc:	e59430a0 	ldr	r3, [r4, #160]	; 0xa0
    37d0:	e3530000 	cmp	r3, #0
    37d4:	e1a05000 	mov	r5, r0
    37d8:	0a000008 	beq	3800 <__cs3_openslot+0x3c>
    37dc:	e3550013 	cmp	r5, #19
    37e0:	8a000008 	bhi	3808 <__cs3_openslot+0x44>
    37e4:	e7943185 	ldr	r3, [r4, r5, lsl #3]
    37e8:	e3730001 	cmn	r3, #1
    37ec:	10844185 	addne	r4, r4, r5, lsl #3
    37f0:	0a000004 	beq	3808 <__cs3_openslot+0x44>
    37f4:	e1a00004 	mov	r0, r4
    37f8:	e8bd4070 	pop	{r4, r5, r6, lr}
    37fc:	e12fff1e 	bx	lr
    3800:	ebffffb8 	bl	36e8 <initialize_monitor_handles.part.0>
    3804:	eafffff4 	b	37dc <__cs3_openslot+0x18>
    3808:	eb0000a4 	bl	3aa0 <__errno>
    380c:	e3a03009 	mov	r3, #9
    3810:	e3a04000 	mov	r4, #0
    3814:	e5803000 	str	r3, [r0]
    3818:	eafffff5 	b	37f4 <__cs3_openslot+0x30>
    381c:	0000446c 	.word	0x0000446c

00003820 <__cs3_newslot>:
    3820:	e92d4070 	push	{r4, r5, r6, lr}
    3824:	e59f4064 	ldr	r4, [pc, #100]	; 3890 <__cs3_newslot+0x70>
    3828:	e59430a0 	ldr	r3, [r4, #160]	; 0xa0
    382c:	e3530000 	cmp	r3, #0
    3830:	e1a05000 	mov	r5, r0
    3834:	0a000013 	beq	3888 <__cs3_newslot+0x68>
    3838:	e3a03000 	mov	r3, #0
    383c:	e7942183 	ldr	r2, [r4, r3, lsl #3]
    3840:	e3720001 	cmn	r2, #1
    3844:	e1a02183 	lsl	r2, r3, #3
    3848:	0a000009 	beq	3874 <__cs3_newslot+0x54>
    384c:	e2833001 	add	r3, r3, #1
    3850:	e3530014 	cmp	r3, #20
    3854:	1afffff8 	bne	383c <__cs3_newslot+0x1c>
    3858:	eb000090 	bl	3aa0 <__errno>
    385c:	e3a04000 	mov	r4, #0
    3860:	e3a03018 	mov	r3, #24
    3864:	e5803000 	str	r3, [r0]
    3868:	e1a00004 	mov	r0, r4
    386c:	e8bd4070 	pop	{r4, r5, r6, lr}
    3870:	e12fff1e 	bx	lr
    3874:	e0844002 	add	r4, r4, r2
    3878:	e1a00004 	mov	r0, r4
    387c:	e5853000 	str	r3, [r5]
    3880:	e8bd4070 	pop	{r4, r5, r6, lr}
    3884:	e12fff1e 	bx	lr
    3888:	ebffff96 	bl	36e8 <initialize_monitor_handles.part.0>
    388c:	eaffffe9 	b	3838 <__cs3_newslot+0x18>
    3890:	0000446c 	.word	0x0000446c

00003894 <__cs3_checkerror>:
    3894:	e3700001 	cmn	r0, #1
    3898:	e92d4070 	push	{r4, r5, r6, lr}
    389c:	e1a04000 	mov	r4, r0
    38a0:	0a000002 	beq	38b0 <__cs3_checkerror+0x1c>
    38a4:	e1a00004 	mov	r0, r4
    38a8:	e8bd4070 	pop	{r4, r5, r6, lr}
    38ac:	e12fff1e 	bx	lr
    38b0:	eb00007a 	bl	3aa0 <__errno>
    38b4:	e3a01000 	mov	r1, #0
    38b8:	e1a05000 	mov	r5, r0
    38bc:	e3a00013 	mov	r0, #19
    38c0:	ef123456 	svc	0x00123456
    38c4:	e5850000 	str	r0, [r5]
    38c8:	e1a00004 	mov	r0, r4
    38cc:	e8bd4070 	pop	{r4, r5, r6, lr}
    38d0:	e12fff1e 	bx	lr

000038d4 <__cs3_init_args>:
    38d4:	e92d41f0 	push	{r4, r5, r6, r7, r8, lr}
    38d8:	e59f4198 	ldr	r4, [pc, #408]	; 3a78 <__cs3_init_args+0x1a4>
    38dc:	e3540000 	cmp	r4, #0
    38e0:	e24dd008 	sub	sp, sp, #8
    38e4:	0a000002 	beq	38f4 <__cs3_init_args+0x20>
    38e8:	e28dd008 	add	sp, sp, #8
    38ec:	e8bd41f0 	pop	{r4, r5, r6, r7, r8, lr}
    38f0:	e12fff1e 	bx	lr
    38f4:	e3a00c01 	mov	r0, #256	; 0x100
    38f8:	ebffff5d 	bl	3674 <_sbrk>
    38fc:	e3700001 	cmn	r0, #1
    3900:	e1a05000 	mov	r5, r0
    3904:	0afffff7 	beq	38e8 <__cs3_init_args+0x14>
    3908:	e3a03c01 	mov	r3, #256	; 0x100
    390c:	e5c04000 	strb	r4, [r0]
    3910:	e1a0100d 	mov	r1, sp
    3914:	e3a00015 	mov	r0, #21
    3918:	e58d5000 	str	r5, [sp]
    391c:	e58d3004 	str	r3, [sp, #4]
    3920:	ef123456 	svc	0x00123456
    3924:	e3a08001 	mov	r8, #1
    3928:	e1a06008 	mov	r6, r8
    392c:	e1a00004 	mov	r0, r4
    3930:	e1a07004 	mov	r7, r4
    3934:	e59f4140 	ldr	r4, [pc, #320]	; 3a7c <__cs3_init_args+0x1a8>
    3938:	e1a02005 	mov	r2, r5
    393c:	e1a01005 	mov	r1, r5
    3940:	e3a03000 	mov	r3, #0
    3944:	e5847000 	str	r7, [r4]
    3948:	e5d1c000 	ldrb	r12, [r1]
    394c:	e35c0000 	cmp	r12, #0
    3950:	0a00002f 	beq	3a14 <__cs3_init_args+0x140>
    3954:	e3530000 	cmp	r3, #0
    3958:	e2811001 	add	r1, r1, #1
    395c:	1a000005 	bne	3978 <__cs3_init_args+0xa4>
    3960:	e3500000 	cmp	r0, #0
    3964:	0a000028 	beq	3a0c <__cs3_init_args+0x138>
    3968:	e5943000 	ldr	r3, [r4]
    396c:	e7802103 	str	r2, [r0, r3, lsl #2]
    3970:	e2833001 	add	r3, r3, #1
    3974:	e5843000 	str	r3, [r4]
    3978:	e35c0020 	cmp	r12, #32
    397c:	0a000015 	beq	39d8 <__cs3_init_args+0x104>
    3980:	e35c0027 	cmp	r12, #39	; 0x27
    3984:	135c0022 	cmpne	r12, #34	; 0x22
    3988:	1a00000e 	bne	39c8 <__cs3_init_args+0xf4>
    398c:	e5d13000 	ldrb	r3, [r1]
    3990:	e3530000 	cmp	r3, #0
    3994:	1a000006 	bne	39b4 <__cs3_init_args+0xe0>
    3998:	ea00001d 	b	3a14 <__cs3_init_args+0x140>
    399c:	e3500000 	cmp	r0, #0
    39a0:	15c23000 	strbne	r3, [r2]
    39a4:	e5f13001 	ldrb	r3, [r1, #1]!
    39a8:	12822001 	addne	r2, r2, #1
    39ac:	e3530000 	cmp	r3, #0
    39b0:	0a000017 	beq	3a14 <__cs3_init_args+0x140>
    39b4:	e153000c 	cmp	r3, r12
    39b8:	1afffff7 	bne	399c <__cs3_init_args+0xc8>
    39bc:	e2811001 	add	r1, r1, #1
    39c0:	e1a03006 	mov	r3, r6
    39c4:	eaffffdf 	b	3948 <__cs3_init_args+0x74>
    39c8:	e3500000 	cmp	r0, #0
    39cc:	15c2c000 	strbne	r12, [r2]
    39d0:	12822001 	addne	r2, r2, #1
    39d4:	eafffff9 	b	39c0 <__cs3_init_args+0xec>
    39d8:	e3500000 	cmp	r0, #0
    39dc:	0a000006 	beq	39fc <__cs3_init_args+0x128>
    39e0:	e5c27000 	strb	r7, [r2]
    39e4:	e5d1c000 	ldrb	r12, [r1]
    39e8:	e35c0000 	cmp	r12, #0
    39ec:	e2822001 	add	r2, r2, #1
    39f0:	0a000007 	beq	3a14 <__cs3_init_args+0x140>
    39f4:	e2811001 	add	r1, r1, #1
    39f8:	eaffffd8 	b	3960 <__cs3_init_args+0x8c>
    39fc:	e5d1c000 	ldrb	r12, [r1]
    3a00:	e35c0000 	cmp	r12, #0
    3a04:	0a000002 	beq	3a14 <__cs3_init_args+0x140>
    3a08:	e2811001 	add	r1, r1, #1
    3a0c:	e5943000 	ldr	r3, [r4]
    3a10:	eaffffd6 	b	3970 <__cs3_init_args+0x9c>
    3a14:	e3580001 	cmp	r8, #1
    3a18:	0a000008 	beq	3a40 <__cs3_init_args+0x16c>
    3a1c:	e3580002 	cmp	r8, #2
    3a20:	1a000012 	bne	3a70 <__cs3_init_args+0x19c>
    3a24:	e3a03000 	mov	r3, #0
    3a28:	e5c23000 	strb	r3, [r2]
    3a2c:	e59f204c 	ldr	r2, [pc, #76]	; 3a80 <__cs3_init_args+0x1ac>
    3a30:	e5941000 	ldr	r1, [r4]
    3a34:	e7803101 	str	r3, [r0, r1, lsl #2]
    3a38:	e5820000 	str	r0, [r2]
    3a3c:	eaffffa9 	b	38e8 <__cs3_init_args+0x14>
    3a40:	e0410005 	sub	r0, r1, r5
    3a44:	e2800010 	add	r0, r0, #16
    3a48:	e3c0000f 	bic	r0, r0, #15
    3a4c:	e2400c01 	sub	r0, r0, #256	; 0x100
    3a50:	ebffff07 	bl	3674 <_sbrk>
    3a54:	e5940000 	ldr	r0, [r4]
    3a58:	e2800004 	add	r0, r0, #4
    3a5c:	e3c00003 	bic	r0, r0, #3
    3a60:	e1a00100 	lsl	r0, r0, #2
    3a64:	ebffff02 	bl	3674 <_sbrk>
    3a68:	e3700001 	cmn	r0, #1
    3a6c:	0affff9d 	beq	38e8 <__cs3_init_args+0x14>
    3a70:	e2888001 	add	r8, r8, #1
    3a74:	eaffffaf 	b	3938 <__cs3_init_args+0x64>
    3a78:	00000000 	.word	0x00000000
    3a7c:	00004514 	.word	0x00004514
    3a80:	00004510 	.word	0x00004510

00003a84 <__cs3_isr_interrupt>:
    3a84:	eafffffe 	b	3a84 <__cs3_isr_interrupt>

00003a88 <__cs3_isr_undef>:
    3a88:	eafffffe 	b	3a88 <__cs3_isr_undef>

00003a8c <__cs3_isr_swi>:
    3a8c:	eafffffe 	b	3a8c <__cs3_isr_swi>

00003a90 <__cs3_isr_pabort>:
    3a90:	eafffffe 	b	3a90 <__cs3_isr_pabort>

00003a94 <__cs3_isr_dabort>:
    3a94:	eafffffe 	b	3a94 <__cs3_isr_dabort>

00003a98 <__cs3_isr_irq>:
    3a98:	eafffffe 	b	3a98 <__cs3_isr_irq>

00003a9c <__cs3_isr_fiq>:
    3a9c:	eafffffe 	b	3a9c <__cs3_isr_fiq>

00003aa0 <__errno>:
    3aa0:	e92d4010 	push	{r4, lr}
    3aa4:	ebfff5a2 	bl	1134 <__getreent>
    3aa8:	e8bd4010 	pop	{r4, lr}
    3aac:	e12fff1e 	bx	lr

00003ab0 <__libc_init_array>:
    3ab0:	e92d4070 	push	{r4, r5, r6, lr}
    3ab4:	e59f6064 	ldr	r6, [pc, #100]	; 3b20 <__libc_init_array+0x70>
    3ab8:	e59f5064 	ldr	r5, [pc, #100]	; 3b24 <__libc_init_array+0x74>
    3abc:	e0466005 	sub	r6, r6, r5
    3ac0:	e1b06146 	asrs	r6, r6, #2
    3ac4:	13a04000 	movne	r4, #0
    3ac8:	0a000005 	beq	3ae4 <__libc_init_array+0x34>
    3acc:	e2844001 	add	r4, r4, #1
    3ad0:	e4953004 	ldr	r3, [r5], #4
    3ad4:	e1a0e00f 	mov	lr, pc
    3ad8:	e12fff13 	bx	r3
    3adc:	e1560004 	cmp	r6, r4
    3ae0:	1afffff9 	bne	3acc <__libc_init_array+0x1c>
    3ae4:	e59f603c 	ldr	r6, [pc, #60]	; 3b28 <__libc_init_array+0x78>
    3ae8:	e59f503c 	ldr	r5, [pc, #60]	; 3b2c <__libc_init_array+0x7c>
    3aec:	e0466005 	sub	r6, r6, r5
    3af0:	eb000016 	bl	3b50 <_init>
    3af4:	e1b06146 	asrs	r6, r6, #2
    3af8:	13a04000 	movne	r4, #0
    3afc:	0a000005 	beq	3b18 <__libc_init_array+0x68>
    3b00:	e2844001 	add	r4, r4, #1
    3b04:	e4953004 	ldr	r3, [r5], #4
    3b08:	e1a0e00f 	mov	lr, pc
    3b0c:	e12fff13 	bx	r3
    3b10:	e1560004 	cmp	r6, r4
    3b14:	1afffff9 	bne	3b00 <__libc_init_array+0x50>
    3b18:	e8bd4070 	pop	{r4, r5, r6, lr}
    3b1c:	e12fff1e 	bx	lr
    3b20:	00003b68 	.word	0x00003b68
    3b24:	00003b68 	.word	0x00003b68
    3b28:	00003b84 	.word	0x00003b84
    3b2c:	00003b68 	.word	0x00003b68
